SF:/home/quinten/Documents/Software_Development/muster/src/agent/instance.rs
FN:164,_RNvMNtNtCs3bOdyUEi4qt_6muster5agent8instanceNtB2_5Agent10age_string
FN:151,_RNvMNtNtCs3bOdyUEi4qt_6muster5agent8instanceNtB2_5Agent10set_status
FN:74,_RNvMNtNtCs3bOdyUEi4qt_6muster5agent8instanceNtB2_5Agent3new
FN:134,_RNvMNtNtCs3bOdyUEi4qt_6muster5agent8instanceNtB2_5Agent7is_root
FN:180,_RNvMNtNtCs3bOdyUEi4qt_6muster5agent8instanceNtB2_5Agent7summary
FN:158,_RNvMNtNtCs3bOdyUEi4qt_6muster5agent8instanceNtB2_5Agent8is_alive
FN:140,_RNvMNtNtCs3bOdyUEi4qt_6muster5agent8instanceNtB2_5Agent8is_child
FN:146,_RNvMNtNtCs3bOdyUEi4qt_6muster5agent8instanceNtB2_5Agent8short_id
FN:104,_RNvMNtNtCs3bOdyUEi4qt_6muster5agent8instanceNtB2_5Agent9new_child
FN:56,_RNvNtNtCs3bOdyUEi4qt_6muster5agent8instance17default_collapsed
FN:241,_RNCNvNtNtNtCs5Hx9zLFZsDi_6muster5agent8instance5testss_13test_short_id0B9_
FN:164,_RNvMNtNtCs5Hx9zLFZsDi_6muster5agent8instanceNtB2_5Agent10age_string
FN:151,_RNvMNtNtCs5Hx9zLFZsDi_6muster5agent8instanceNtB2_5Agent10set_status
FN:74,_RNvMNtNtCs5Hx9zLFZsDi_6muster5agent8instanceNtB2_5Agent3new
FN:134,_RNvMNtNtCs5Hx9zLFZsDi_6muster5agent8instanceNtB2_5Agent7is_root
FN:180,_RNvMNtNtCs5Hx9zLFZsDi_6muster5agent8instanceNtB2_5Agent7summary
FN:158,_RNvMNtNtCs5Hx9zLFZsDi_6muster5agent8instanceNtB2_5Agent8is_alive
FN:140,_RNvMNtNtCs5Hx9zLFZsDi_6muster5agent8instanceNtB2_5Agent8is_child
FN:146,_RNvMNtNtCs5Hx9zLFZsDi_6muster5agent8instanceNtB2_5Agent8short_id
FN:104,_RNvMNtNtCs5Hx9zLFZsDi_6muster5agent8instanceNtB2_5Agent9new_child
FN:56,_RNvNtNtCs5Hx9zLFZsDi_6muster5agent8instance17default_collapsed
FN:197,_RNvNtNtNtCs5Hx9zLFZsDi_6muster5agent8instance5tests17create_test_agent
FN:282,_RNvNtNtNtCs5Hx9zLFZsDi_6muster5agent8instance5testss_12test_summary
FN:258,_RNvNtNtNtCs5Hx9zLFZsDi_6muster5agent8instance5testss_13test_is_alive
FN:236,_RNvNtNtNtCs5Hx9zLFZsDi_6muster5agent8instance5testss_13test_short_id
FN:208,_RNvNtNtNtCs5Hx9zLFZsDi_6muster5agent8instance5testss_14test_new_agent
FN:274,_RNvNtNtNtCs5Hx9zLFZsDi_6muster5agent8instance5testss_15test_age_string
FN:245,_RNvNtNtNtCs5Hx9zLFZsDi_6muster5agent8instance5testss_15test_set_status
FN:306,_RNvNtNtNtCs5Hx9zLFZsDi_6muster5agent8instance5testss_15test_unique_ids
FN:325,_RNvNtNtNtCs5Hx9zLFZsDi_6muster5agent8instance5testss_20test_new_child_agent
FN:292,_RNvNtNtNtCs5Hx9zLFZsDi_6muster5agent8instance5testss_20test_serde_roundtrip
FN:220,_RNvNtNtNtCs5Hx9zLFZsDi_6muster5agent8instance5testss_22test_agent_with_prompt
FN:315,_RNvNtNtNtCs5Hx9zLFZsDi_6muster5agent8instance5testss_22test_new_agent_is_root
FN:374,_RNvNtNtNtCs5Hx9zLFZsDi_6muster5agent8instance5testss_34test_serde_backwards_compatibility
FN:349,_RNvNtNtNtCs5Hx9zLFZsDi_6muster5agent8instance5testss_35test_serde_roundtrip_with_hierarchy
FNDA:127,_RNvMNtNtCs3bOdyUEi4qt_6muster5agent8instanceNtB2_5Agent10age_string
FNDA:144,_RNvMNtNtCs3bOdyUEi4qt_6muster5agent8instanceNtB2_5Agent10set_status
FNDA:155,_RNvMNtNtCs3bOdyUEi4qt_6muster5agent8instanceNtB2_5Agent3new
FNDA:125,_RNvMNtNtCs3bOdyUEi4qt_6muster5agent8instanceNtB2_5Agent7is_root
FNDA:0,_RNvMNtNtCs3bOdyUEi4qt_6muster5agent8instanceNtB2_5Agent7summary
FNDA:0,_RNvMNtNtCs3bOdyUEi4qt_6muster5agent8instanceNtB2_5Agent8is_alive
FNDA:0,_RNvMNtNtCs3bOdyUEi4qt_6muster5agent8instanceNtB2_5Agent8is_child
FNDA:2,_RNvMNtNtCs3bOdyUEi4qt_6muster5agent8instanceNtB2_5Agent8short_id
FNDA:0,_RNvMNtNtCs3bOdyUEi4qt_6muster5agent8instanceNtB2_5Agent9new_child
FNDA:0,_RNvNtNtCs3bOdyUEi4qt_6muster5agent8instance17default_collapsed
FNDA:8,_RNCNvNtNtNtCs5Hx9zLFZsDi_6muster5agent8instance5testss_13test_short_id0B9_
FNDA:2,_RNvMNtNtCs5Hx9zLFZsDi_6muster5agent8instanceNtB2_5Agent10age_string
FNDA:26,_RNvMNtNtCs5Hx9zLFZsDi_6muster5agent8instanceNtB2_5Agent10set_status
FNDA:89,_RNvMNtNtCs5Hx9zLFZsDi_6muster5agent8instanceNtB2_5Agent3new
FNDA:74,_RNvMNtNtCs5Hx9zLFZsDi_6muster5agent8instanceNtB2_5Agent7is_root
FNDA:1,_RNvMNtNtCs5Hx9zLFZsDi_6muster5agent8instanceNtB2_5Agent7summary
FNDA:6,_RNvMNtNtCs5Hx9zLFZsDi_6muster5agent8instanceNtB2_5Agent8is_alive
FNDA:2,_RNvMNtNtCs5Hx9zLFZsDi_6muster5agent8instanceNtB2_5Agent8is_child
FNDA:3,_RNvMNtNtCs5Hx9zLFZsDi_6muster5agent8instanceNtB2_5Agent8short_id
FNDA:25,_RNvMNtNtCs5Hx9zLFZsDi_6muster5agent8instanceNtB2_5Agent9new_child
FNDA:1,_RNvNtNtCs5Hx9zLFZsDi_6muster5agent8instance17default_collapsed
FNDA:12,_RNvNtNtNtCs5Hx9zLFZsDi_6muster5agent8instance5tests17create_test_agent
FNDA:1,_RNvNtNtNtCs5Hx9zLFZsDi_6muster5agent8instance5testss_12test_summary
FNDA:1,_RNvNtNtNtCs5Hx9zLFZsDi_6muster5agent8instance5testss_13test_is_alive
FNDA:1,_RNvNtNtNtCs5Hx9zLFZsDi_6muster5agent8instance5testss_13test_short_id
FNDA:1,_RNvNtNtNtCs5Hx9zLFZsDi_6muster5agent8instance5testss_14test_new_agent
FNDA:1,_RNvNtNtNtCs5Hx9zLFZsDi_6muster5agent8instance5testss_15test_age_string
FNDA:1,_RNvNtNtNtCs5Hx9zLFZsDi_6muster5agent8instance5testss_15test_set_status
FNDA:1,_RNvNtNtNtCs5Hx9zLFZsDi_6muster5agent8instance5testss_15test_unique_ids
FNDA:1,_RNvNtNtNtCs5Hx9zLFZsDi_6muster5agent8instance5testss_20test_new_child_agent
FNDA:1,_RNvNtNtNtCs5Hx9zLFZsDi_6muster5agent8instance5testss_20test_serde_roundtrip
FNDA:1,_RNvNtNtNtCs5Hx9zLFZsDi_6muster5agent8instance5testss_22test_agent_with_prompt
FNDA:1,_RNvNtNtNtCs5Hx9zLFZsDi_6muster5agent8instance5testss_22test_new_agent_is_root
FNDA:1,_RNvNtNtNtCs5Hx9zLFZsDi_6muster5agent8instance5testss_34test_serde_backwards_compatibility
FNDA:1,_RNvNtNtNtCs5Hx9zLFZsDi_6muster5agent8instance5testss_35test_serde_roundtrip_with_hierarchy
FNF:25
FNH:25
DA:56,1
DA:57,1
DA:58,1
DA:74,244
DA:75,244
DA:76,244
DA:77,244
DA:78,244
DA:79,244
DA:80,244
DA:81,244
DA:82,244
DA:83,244
DA:85,244
DA:86,244
DA:87,244
DA:88,244
DA:89,244
DA:90,244
DA:91,244
DA:92,244
DA:93,244
DA:94,244
DA:95,244
DA:96,244
DA:97,244
DA:98,244
DA:99,244
DA:100,244
DA:104,25
DA:105,25
DA:106,25
DA:107,25
DA:108,25
DA:109,25
DA:110,25
DA:111,25
DA:112,25
DA:113,25
DA:115,25
DA:116,25
DA:117,25
DA:118,25
DA:119,25
DA:120,25
DA:121,25
DA:122,25
DA:123,25
DA:124,25
DA:125,25
DA:126,25
DA:127,25
DA:128,25
DA:129,25
DA:130,25
DA:134,199
DA:135,199
DA:136,199
DA:140,2
DA:141,2
DA:142,2
DA:146,5
DA:147,5
DA:148,5
DA:151,170
DA:152,170
DA:153,170
DA:154,170
DA:158,6
DA:159,6
DA:160,6
DA:164,129
DA:165,129
DA:167,129
DA:168,0
DA:169,129
DA:170,0
DA:171,129
DA:172,0
DA:174,129
DA:176,129
DA:180,1
DA:181,1
DA:182,1
DA:183,1
DA:188,1
DA:197,12
DA:198,12
DA:199,12
DA:200,12
DA:201,12
DA:202,12
DA:203,12
DA:205,12
DA:208,1
DA:209,1
DA:211,1
DA:212,1
DA:213,1
DA:214,1
DA:215,1
DA:216,1
DA:217,1
DA:220,1
DA:221,1
DA:222,1
DA:223,1
DA:224,1
DA:225,1
DA:226,1
DA:229,1
DA:231,1
DA:233,1
DA:236,1
DA:237,1
DA:238,1
DA:240,1
DA:241,8
DA:242,1
DA:245,1
DA:246,1
DA:247,1
DA:249,1
DA:251,1
DA:253,1
DA:254,1
DA:255,1
DA:258,1
DA:259,1
DA:261,1
DA:263,1
DA:264,1
DA:266,1
DA:267,1
DA:269,1
DA:270,1
DA:271,1
DA:274,1
DA:275,1
DA:276,1
DA:278,1
DA:279,1
DA:282,1
DA:283,1
DA:284,1
DA:286,1
DA:287,1
DA:288,1
DA:289,1
DA:292,1
DA:293,1
DA:294,1
DA:295,1
DA:297,1
DA:298,1
DA:299,1
DA:300,1
DA:301,1
DA:302,1
DA:303,1
DA:306,1
DA:307,1
DA:308,1
DA:310,1
DA:311,1
DA:312,1
DA:315,1
DA:316,1
DA:317,1
DA:318,1
DA:319,1
DA:320,1
DA:321,1
DA:322,1
DA:325,1
DA:326,1
DA:327,1
DA:328,1
DA:329,1
DA:330,1
DA:331,1
DA:332,1
DA:333,1
DA:334,1
DA:335,1
DA:336,1
DA:337,1
DA:340,1
DA:341,1
DA:342,1
DA:343,1
DA:344,1
DA:345,1
DA:346,1
DA:349,1
DA:350,1
DA:351,1
DA:352,1
DA:353,1
DA:354,1
DA:355,1
DA:356,1
DA:357,1
DA:358,1
DA:359,1
DA:360,1
DA:361,1
DA:364,1
DA:365,1
DA:367,1
DA:368,1
DA:369,1
DA:370,1
DA:371,1
DA:374,1
DA:376,1
DA:377,1
DA:378,1
DA:379,1
DA:380,1
DA:381,1
DA:382,1
DA:383,1
DA:384,1
DA:385,1
DA:386,1
DA:387,1
DA:389,1
DA:390,1
DA:391,1
DA:392,1
DA:393,1
DA:394,1
BRF:0
BRH:0
LF:234
LH:231
end_of_record
SF:/home/quinten/Documents/Software_Development/muster/src/agent/status.rs
FN:30,_RNvMNtNtCs3bOdyUEi4qt_6muster5agent6statusNtB2_6Status10can_resume
FN:59,_RNvMNtNtCs3bOdyUEi4qt_6muster5agent6statusNtB2_6Status10color_name
FN:48,_RNvMNtNtCs3bOdyUEi4qt_6muster5agent6statusNtB2_6Status6symbol
FN:42,_RNvMNtNtCs3bOdyUEi4qt_6muster5agent6statusNtB2_6Status8can_kill
FN:36,_RNvMNtNtCs3bOdyUEi4qt_6muster5agent6statusNtB2_6Status9can_pause
FN:24,_RNvMNtNtCs3bOdyUEi4qt_6muster5agent6statusNtB2_6Status9is_active
FN:70,_RNvXs_NtNtCs3bOdyUEi4qt_6muster5agent6statusNtB4_6StatusNtNtCs4Vq2ZLagKfv_4core3fmt7Display3fmt
FN:30,_RNvMNtNtCs5Hx9zLFZsDi_6muster5agent6statusNtB2_6Status10can_resume
FN:59,_RNvMNtNtCs5Hx9zLFZsDi_6muster5agent6statusNtB2_6Status10color_name
FN:48,_RNvMNtNtCs5Hx9zLFZsDi_6muster5agent6statusNtB2_6Status6symbol
FN:42,_RNvMNtNtCs5Hx9zLFZsDi_6muster5agent6statusNtB2_6Status8can_kill
FN:36,_RNvMNtNtCs5Hx9zLFZsDi_6muster5agent6statusNtB2_6Status9can_pause
FN:24,_RNvMNtNtCs5Hx9zLFZsDi_6muster5agent6statusNtB2_6Status9is_active
FN:124,_RNvNtNtNtCs5Hx9zLFZsDi_6muster5agent6status5testss_11test_symbol
FN:140,_RNvNtNtNtCs5Hx9zLFZsDi_6muster5agent6status5testss_12test_display
FN:116,_RNvNtNtNtCs5Hx9zLFZsDi_6muster5agent6status5testss_13test_can_kill
FN:108,_RNvNtNtNtCs5Hx9zLFZsDi_6muster5agent6status5testss_14test_can_pause
FN:92,_RNvNtNtNtCs5Hx9zLFZsDi_6muster5agent6status5testss_14test_is_active
FN:100,_RNvNtNtNtCs5Hx9zLFZsDi_6muster5agent6status5testss_15test_can_resume
FN:132,_RNvNtNtNtCs5Hx9zLFZsDi_6muster5agent6status5testss_15test_color_name
FN:163,_RNvNtNtNtCs5Hx9zLFZsDi_6muster5agent6status5testss_17test_serde_format
FN:86,_RNvNtNtNtCs5Hx9zLFZsDi_6muster5agent6status5testss_19test_default_status
FN:148,_RNvNtNtNtCs5Hx9zLFZsDi_6muster5agent6status5testss_20test_serde_roundtrip
FN:70,_RNvXs_NtNtCs5Hx9zLFZsDi_6muster5agent6statusNtB4_6StatusNtNtCs4Vq2ZLagKfv_4core3fmt7Display3fmt
FNDA:5,_RNvMNtNtCs3bOdyUEi4qt_6muster5agent6statusNtB2_6Status10can_resume
FNDA:0,_RNvMNtNtCs3bOdyUEi4qt_6muster5agent6statusNtB2_6Status10color_name
FNDA:127,_RNvMNtNtCs3bOdyUEi4qt_6muster5agent6statusNtB2_6Status6symbol
FNDA:0,_RNvMNtNtCs3bOdyUEi4qt_6muster5agent6statusNtB2_6Status8can_kill
FNDA:5,_RNvMNtNtCs3bOdyUEi4qt_6muster5agent6statusNtB2_6Status9can_pause
FNDA:0,_RNvMNtNtCs3bOdyUEi4qt_6muster5agent6statusNtB2_6Status9is_active
FNDA:0,_RNvXs_NtNtCs3bOdyUEi4qt_6muster5agent6statusNtB4_6StatusNtNtCs4Vq2ZLagKfv_4core3fmt7Display3fmt
FNDA:6,_RNvMNtNtCs5Hx9zLFZsDi_6muster5agent6statusNtB2_6Status10can_resume
FNDA:4,_RNvMNtNtCs5Hx9zLFZsDi_6muster5agent6statusNtB2_6Status10color_name
FNDA:5,_RNvMNtNtCs5Hx9zLFZsDi_6muster5agent6statusNtB2_6Status6symbol
FNDA:4,_RNvMNtNtCs5Hx9zLFZsDi_6muster5agent6statusNtB2_6Status8can_kill
FNDA:6,_RNvMNtNtCs5Hx9zLFZsDi_6muster5agent6statusNtB2_6Status9can_pause
FNDA:4,_RNvMNtNtCs5Hx9zLFZsDi_6muster5agent6statusNtB2_6Status9is_active
FNDA:1,_RNvNtNtNtCs5Hx9zLFZsDi_6muster5agent6status5testss_11test_symbol
FNDA:1,_RNvNtNtNtCs5Hx9zLFZsDi_6muster5agent6status5testss_12test_display
FNDA:1,_RNvNtNtNtCs5Hx9zLFZsDi_6muster5agent6status5testss_13test_can_kill
FNDA:1,_RNvNtNtNtCs5Hx9zLFZsDi_6muster5agent6status5testss_14test_can_pause
FNDA:1,_RNvNtNtNtCs5Hx9zLFZsDi_6muster5agent6status5testss_14test_is_active
FNDA:1,_RNvNtNtNtCs5Hx9zLFZsDi_6muster5agent6status5testss_15test_can_resume
FNDA:1,_RNvNtNtNtCs5Hx9zLFZsDi_6muster5agent6status5testss_15test_color_name
FNDA:1,_RNvNtNtNtCs5Hx9zLFZsDi_6muster5agent6status5testss_17test_serde_format
FNDA:1,_RNvNtNtNtCs5Hx9zLFZsDi_6muster5agent6status5testss_19test_default_status
FNDA:1,_RNvNtNtNtCs5Hx9zLFZsDi_6muster5agent6status5testss_20test_serde_roundtrip
FNDA:5,_RNvXs_NtNtCs5Hx9zLFZsDi_6muster5agent6statusNtB4_6StatusNtNtCs4Vq2ZLagKfv_4core3fmt7Display3fmt
FNF:17
FNH:17
DA:24,4
DA:25,4
DA:26,4
DA:30,11
DA:31,11
DA:32,11
DA:36,11
DA:37,11
DA:38,11
DA:42,4
DA:43,4
DA:44,4
DA:48,132
DA:49,132
DA:50,23
DA:51,37
DA:52,36
DA:53,36
DA:55,132
DA:59,4
DA:60,4
DA:61,1
DA:62,1
DA:63,1
DA:64,1
DA:66,4
DA:70,5
DA:71,5
DA:72,2
DA:73,1
DA:74,1
DA:75,1
DA:77,5
DA:78,5
DA:86,1
DA:87,1
DA:88,1
DA:89,1
DA:92,1
DA:93,1
DA:94,1
DA:95,1
DA:96,1
DA:97,1
DA:100,1
DA:101,1
DA:102,1
DA:103,1
DA:104,1
DA:105,1
DA:108,1
DA:109,1
DA:110,1
DA:111,1
DA:112,1
DA:113,1
DA:116,1
DA:117,1
DA:118,1
DA:119,1
DA:120,1
DA:121,1
DA:124,1
DA:125,1
DA:126,1
DA:127,1
DA:128,1
DA:129,1
DA:132,1
DA:133,1
DA:134,1
DA:135,1
DA:136,1
DA:137,1
DA:140,1
DA:141,1
DA:142,1
DA:143,1
DA:144,1
DA:145,1
DA:148,1
DA:149,4
DA:150,1
DA:151,1
DA:152,1
DA:153,1
DA:155,4
DA:156,4
DA:157,4
DA:159,1
DA:160,1
DA:163,1
DA:164,1
DA:165,1
DA:166,1
DA:167,1
BRF:0
BRH:0
LF:96
LH:96
end_of_record
SF:/home/quinten/Documents/Software_Development/muster/src/agent/storage.rs
FN:201,_RNCNvMs_NtNtCs3bOdyUEi4qt_6muster5agent7storageNtB6_7Storage11child_count0Ba_
FN:178,_RNCNvMs_NtNtCs3bOdyUEi4qt_6muster5agent7storageNtB6_7Storage11root_agents0Ba_
FN:155,_RNCNvMs_NtNtCs3bOdyUEi4qt_6muster5agent7storageNtB6_7Storage12alive_agents0Ba_
FN:193,_RNCNvMs_NtNtCs3bOdyUEi4qt_6muster5agent7storageNtB6_7Storage12has_children0Ba_
FN:137,_RNCNvMs_NtNtCs3bOdyUEi4qt_6muster5agent7storageNtB6_7Storage16find_by_short_id0Ba_
FN:310,_RNCNvMs_NtNtCs3bOdyUEi4qt_6muster5agent7storageNtB6_7Storage16visible_index_of0Ba_
FN:113,_RNCNvMs_NtNtCs3bOdyUEi4qt_6muster5agent7storageNtB6_7Storage3get0Ba_
FN:103,_RNCNvMs_NtNtCs3bOdyUEi4qt_6muster5agent7storageNtB6_7Storage6remove0Ba_
FN:118,_RNCNvMs_NtNtCs3bOdyUEi4qt_6muster5agent7storageNtB6_7Storage7get_mut0Ba_
FN:86,_RNCNvMs_NtNtCs3bOdyUEi4qt_6muster5agent7storageNtB6_7Storage7save_to0Ba_
FN:92,_RNCNvMs_NtNtCs3bOdyUEi4qt_6muster5agent7storageNtB6_7Storage7save_tos_0Ba_
FN:186,_RNCNvMs_NtNtCs3bOdyUEi4qt_6muster5agent7storageNtB6_7Storage8children0Ba_
FN:63,_RNCNvMs_NtNtCs3bOdyUEi4qt_6muster5agent7storageNtB6_7Storage9load_from0Ba_
FN:65,_RNCNvMs_NtNtCs3bOdyUEi4qt_6muster5agent7storageNtB6_7Storage9load_froms_0Ba_
FN:198,_RNvMs_NtNtCs3bOdyUEi4qt_6muster5agent7storageNtB4_7Storage11child_count
FN:227,_RNvMs_NtNtCs3bOdyUEi4qt_6muster5agent7storageNtB4_7Storage11descendants
FN:177,_RNvMs_NtNtCs3bOdyUEi4qt_6muster5agent7storageNtB4_7Storage11root_agents
FN:154,_RNvMs_NtNtCs3bOdyUEi4qt_6muster5agent7storageNtB4_7Storage12alive_agents
FN:123,_RNvMs_NtNtCs3bOdyUEi4qt_6muster5agent7storageNtB4_7Storage12get_by_index
FN:192,_RNvMs_NtNtCs3bOdyUEi4qt_6muster5agent7storageNtB4_7Storage12has_children
FN:207,_RNvMs_NtNtCs3bOdyUEi4qt_6muster5agent7storageNtB4_7Storage13root_ancestor
FN:301,_RNvMs_NtNtCs3bOdyUEi4qt_6muster5agent7storageNtB4_7Storage13visible_count
FN:243,_RNvMs_NtNtCs3bOdyUEi4qt_6muster5agent7storageNtB4_7Storage14descendant_ids
FN:270,_RNvMs_NtNtCs3bOdyUEi4qt_6muster5agent7storageNtB4_7Storage14visible_agents
FN:134,_RNvMs_NtNtCs3bOdyUEi4qt_6muster5agent7storageNtB4_7Storage16find_by_short_id
FN:128,_RNvMs_NtNtCs3bOdyUEi4qt_6muster5agent7storageNtB4_7Storage16get_by_index_mut
FN:295,_RNvMs_NtNtCs3bOdyUEi4qt_6muster5agent7storageNtB4_7Storage16visible_agent_at
FN:307,_RNvMs_NtNtCs3bOdyUEi4qt_6muster5agent7storageNtB4_7Storage16visible_index_of
FN:331,_RNvMs_NtNtCs3bOdyUEi4qt_6muster5agent7storageNtB4_7Storage17next_window_index
FN:234,_RNvMs_NtNtCs3bOdyUEi4qt_6muster5agent7storageNtB4_7Storage19collect_descendants
FN:279,_RNvMs_NtNtCs3bOdyUEi4qt_6muster5agent7storageNtB4_7Storage21add_visible_recursive
FN:314,_RNvMs_NtNtCs3bOdyUEi4qt_6muster5agent7storageNtB4_7Storage23remove_with_descendants
FN:97,_RNvMs_NtNtCs3bOdyUEi4qt_6muster5agent7storageNtB4_7Storage3add
FN:112,_RNvMs_NtNtCs3bOdyUEi4qt_6muster5agent7storageNtB4_7Storage3get
FN:142,_RNvMs_NtNtCs3bOdyUEi4qt_6muster5agent7storageNtB4_7Storage3len
FN:35,_RNvMs_NtNtCs3bOdyUEi4qt_6muster5agent7storageNtB4_7Storage3new
FN:164,_RNvMs_NtNtCs3bOdyUEi4qt_6muster5agent7storageNtB4_7Storage4iter
FN:47,_RNvMs_NtNtCs3bOdyUEi4qt_6muster5agent7storageNtB4_7Storage4load
FN:74,_RNvMs_NtNtCs3bOdyUEi4qt_6muster5agent7storageNtB4_7Storage4save
FN:159,_RNvMs_NtNtCs3bOdyUEi4qt_6muster5agent7storageNtB4_7Storage5clear
FN:249,_RNvMs_NtNtCs3bOdyUEi4qt_6muster5agent7storageNtB4_7Storage5depth
FN:102,_RNvMs_NtNtCs3bOdyUEi4qt_6muster5agent7storageNtB4_7Storage6remove
FN:117,_RNvMs_NtNtCs3bOdyUEi4qt_6muster5agent7storageNtB4_7Storage7get_mut
FN:84,_RNvMs_NtNtCs3bOdyUEi4qt_6muster5agent7storageNtB4_7Storage7save_to
FN:183,_RNvMs_NtNtCs3bOdyUEi4qt_6muster5agent7storageNtB4_7Storage8children
FN:148,_RNvMs_NtNtCs3bOdyUEi4qt_6muster5agent7storageNtB4_7Storage8is_empty
FN:169,_RNvMs_NtNtCs3bOdyUEi4qt_6muster5agent7storageNtB4_7Storage8iter_mut
FN:61,_RNvMs_NtNtCs3bOdyUEi4qt_6muster5agent7storageNtB4_7Storage9load_from
FN:28,_RNvNtNtCs3bOdyUEi4qt_6muster5agent7storage15default_version
FN:23,_RNvXNtNtCs3bOdyUEi4qt_6muster5agent7storageNtB2_7StorageNtNtCs4Vq2ZLagKfv_4core7default7Default7default
FN:201,_RNCNvMs_NtNtCs5Hx9zLFZsDi_6muster5agent7storageNtB6_7Storage11child_count0Ba_
FN:178,_RNCNvMs_NtNtCs5Hx9zLFZsDi_6muster5agent7storageNtB6_7Storage11root_agents0Ba_
FN:155,_RNCNvMs_NtNtCs5Hx9zLFZsDi_6muster5agent7storageNtB6_7Storage12alive_agents0Ba_
FN:193,_RNCNvMs_NtNtCs5Hx9zLFZsDi_6muster5agent7storageNtB6_7Storage12has_children0Ba_
FN:137,_RNCNvMs_NtNtCs5Hx9zLFZsDi_6muster5agent7storageNtB6_7Storage16find_by_short_id0Ba_
FN:113,_RNCNvMs_NtNtCs5Hx9zLFZsDi_6muster5agent7storageNtB6_7Storage3get0Ba_
FN:103,_RNCNvMs_NtNtCs5Hx9zLFZsDi_6muster5agent7storageNtB6_7Storage6remove0Ba_
FN:118,_RNCNvMs_NtNtCs5Hx9zLFZsDi_6muster5agent7storageNtB6_7Storage7get_mut0Ba_
FN:86,_RNCNvMs_NtNtCs5Hx9zLFZsDi_6muster5agent7storageNtB6_7Storage7save_to0Ba_
FN:92,_RNCNvMs_NtNtCs5Hx9zLFZsDi_6muster5agent7storageNtB6_7Storage7save_tos_0Ba_
FN:186,_RNCNvMs_NtNtCs5Hx9zLFZsDi_6muster5agent7storageNtB6_7Storage8children0Ba_
FN:63,_RNCNvMs_NtNtCs5Hx9zLFZsDi_6muster5agent7storageNtB6_7Storage9load_from0Ba_
FN:65,_RNCNvMs_NtNtCs5Hx9zLFZsDi_6muster5agent7storageNtB6_7Storage9load_froms_0Ba_
FN:527,_RNCNvNtNtNtCs5Hx9zLFZsDi_6muster5agent7storage5testss_13test_iter_mut0B9_
FN:594,_RNCNvNtNtNtCs5Hx9zLFZsDi_6muster5agent7storage5testss_16test_root_agents0B9_
FN:513,_RNCNvNtNtNtCs5Hx9zLFZsDi_6muster5agent7storage5testss_9test_iter0B9_
FN:198,_RNvMs_NtNtCs5Hx9zLFZsDi_6muster5agent7storageNtB4_7Storage11child_count
FN:227,_RNvMs_NtNtCs5Hx9zLFZsDi_6muster5agent7storageNtB4_7Storage11descendants
FN:177,_RNvMs_NtNtCs5Hx9zLFZsDi_6muster5agent7storageNtB4_7Storage11root_agents
FN:154,_RNvMs_NtNtCs5Hx9zLFZsDi_6muster5agent7storageNtB4_7Storage12alive_agents
FN:123,_RNvMs_NtNtCs5Hx9zLFZsDi_6muster5agent7storageNtB4_7Storage12get_by_index
FN:192,_RNvMs_NtNtCs5Hx9zLFZsDi_6muster5agent7storageNtB4_7Storage12has_children
FN:207,_RNvMs_NtNtCs5Hx9zLFZsDi_6muster5agent7storageNtB4_7Storage13root_ancestor
FN:301,_RNvMs_NtNtCs5Hx9zLFZsDi_6muster5agent7storageNtB4_7Storage13visible_count
FN:243,_RNvMs_NtNtCs5Hx9zLFZsDi_6muster5agent7storageNtB4_7Storage14descendant_ids
FN:270,_RNvMs_NtNtCs5Hx9zLFZsDi_6muster5agent7storageNtB4_7Storage14visible_agents
FN:134,_RNvMs_NtNtCs5Hx9zLFZsDi_6muster5agent7storageNtB4_7Storage16find_by_short_id
FN:128,_RNvMs_NtNtCs5Hx9zLFZsDi_6muster5agent7storageNtB4_7Storage16get_by_index_mut
FN:295,_RNvMs_NtNtCs5Hx9zLFZsDi_6muster5agent7storageNtB4_7Storage16visible_agent_at
FN:331,_RNvMs_NtNtCs5Hx9zLFZsDi_6muster5agent7storageNtB4_7Storage17next_window_index
FN:234,_RNvMs_NtNtCs5Hx9zLFZsDi_6muster5agent7storageNtB4_7Storage19collect_descendants
FN:279,_RNvMs_NtNtCs5Hx9zLFZsDi_6muster5agent7storageNtB4_7Storage21add_visible_recursive
FN:314,_RNvMs_NtNtCs5Hx9zLFZsDi_6muster5agent7storageNtB4_7Storage23remove_with_descendants
FN:97,_RNvMs_NtNtCs5Hx9zLFZsDi_6muster5agent7storageNtB4_7Storage3add
FN:112,_RNvMs_NtNtCs5Hx9zLFZsDi_6muster5agent7storageNtB4_7Storage3get
FN:142,_RNvMs_NtNtCs5Hx9zLFZsDi_6muster5agent7storageNtB4_7Storage3len
FN:35,_RNvMs_NtNtCs5Hx9zLFZsDi_6muster5agent7storageNtB4_7Storage3new
FN:164,_RNvMs_NtNtCs5Hx9zLFZsDi_6muster5agent7storageNtB4_7Storage4iter
FN:74,_RNvMs_NtNtCs5Hx9zLFZsDi_6muster5agent7storageNtB4_7Storage4save
FN:159,_RNvMs_NtNtCs5Hx9zLFZsDi_6muster5agent7storageNtB4_7Storage5clear
FN:249,_RNvMs_NtNtCs5Hx9zLFZsDi_6muster5agent7storageNtB4_7Storage5depth
FN:102,_RNvMs_NtNtCs5Hx9zLFZsDi_6muster5agent7storageNtB4_7Storage6remove
FN:117,_RNvMs_NtNtCs5Hx9zLFZsDi_6muster5agent7storageNtB4_7Storage7get_mut
FN:84,_RNvMs_NtNtCs5Hx9zLFZsDi_6muster5agent7storageNtB4_7Storage7save_to
FN:183,_RNvMs_NtNtCs5Hx9zLFZsDi_6muster5agent7storageNtB4_7Storage8children
FN:148,_RNvMs_NtNtCs5Hx9zLFZsDi_6muster5agent7storageNtB4_7Storage8is_empty
FN:169,_RNvMs_NtNtCs5Hx9zLFZsDi_6muster5agent7storageNtB4_7Storage8iter_mut
FN:61,_RNvMs_NtNtCs5Hx9zLFZsDi_6muster5agent7storageNtB4_7Storage9load_from
FN:28,_RNvNtNtCs5Hx9zLFZsDi_6muster5agent7storage15default_version
FN:350,_RNvNtNtNtCs5Hx9zLFZsDi_6muster5agent7storage5tests17create_test_agent
FN:566,_RNvNtNtNtCs5Hx9zLFZsDi_6muster5agent7storage5tests18create_child_agent
FN:497,_RNvNtNtNtCs5Hx9zLFZsDi_6muster5agent7storage5testss_10test_clear
FN:717,_RNvNtNtNtCs5Hx9zLFZsDi_6muster5agent7storage5testss_10test_depth
FN:414,_RNvNtNtNtCs5Hx9zLFZsDi_6muster5agent7storage5testss_12test_get_mut
FN:598,_RNvNtNtNtCs5Hx9zLFZsDi_6muster5agent7storage5testss_13test_children
FN:518,_RNvNtNtNtCs5Hx9zLFZsDi_6muster5agent7storage5testss_13test_iter_mut
FN:369,_RNvNtNtNtCs5Hx9zLFZsDi_6muster5agent7storage5testss_14test_add_agent
FN:402,_RNvNtNtNtCs5Hx9zLFZsDi_6muster5agent7storage5testss_14test_get_agent
FN:628,_RNvNtNtNtCs5Hx9zLFZsDi_6muster5agent7storage5testss_16test_child_count
FN:688,_RNvNtNtNtCs5Hx9zLFZsDi_6muster5agent7storage5testss_16test_descendants
FN:361,_RNvNtNtNtCs5Hx9zLFZsDi_6muster5agent7storage5testss_16test_new_storage
FN:582,_RNvNtNtNtCs5Hx9zLFZsDi_6muster5agent7storage5testss_16test_root_agents
FN:479,_RNvNtNtNtCs5Hx9zLFZsDi_6muster5agent7storage5testss_17test_alive_agents
FN:433,_RNvNtNtNtCs5Hx9zLFZsDi_6muster5agent7storage5testss_17test_get_by_index
FN:614,_RNvNtNtNtCs5Hx9zLFZsDi_6muster5agent7storage5testss_17test_has_children
FN:380,_RNvNtNtNtCs5Hx9zLFZsDi_6muster5agent7storage5testss_17test_remove_agent
FN:558,_RNvNtNtNtCs5Hx9zLFZsDi_6muster5agent7storage5testss_18test_default_trait
FN:642,_RNvNtNtNtCs5Hx9zLFZsDi_6muster5agent7storage5testss_18test_root_ancestor
FN:531,_RNvNtNtNtCs5Hx9zLFZsDi_6muster5agent7storage5testss_18test_save_and_load
FN:805,_RNvNtNtNtCs5Hx9zLFZsDi_6muster5agent7storage5testss_18test_visible_count
FN:467,_RNvNtNtNtCs5Hx9zLFZsDi_6muster5agent7storage5testss_21test_find_by_short_id
FN:451,_RNvNtNtNtCs5Hx9zLFZsDi_6muster5agent7storage5testss_21test_get_by_index_mut
FN:783,_RNvNtNtNtCs5Hx9zLFZsDi_6muster5agent7storage5testss_21test_visible_agent_at
FN:850,_RNvNtNtNtCs5Hx9zLFZsDi_6muster5agent7storage5testss_22test_next_window_index
FN:395,_RNvNtNtNtCs5Hx9zLFZsDi_6muster5agent7storage5testss_23test_remove_nonexistent
FN:818,_RNvNtNtNtCs5Hx9zLFZsDi_6muster5agent7storage5testss_28test_remove_with_descendants
FN:763,_RNvNtNtNtCs5Hx9zLFZsDi_6muster5agent7storage5testss_28test_visible_agents_expanded
FN:747,_RNvNtNtNtCs5Hx9zLFZsDi_6muster5agent7storage5testss_33test_visible_agents_all_collapsed
FN:549,_RNvNtNtNtCs5Hx9zLFZsDi_6muster5agent7storage5testss_35test_load_nonexistent_returns_empty
FN:508,_RNvNtNtNtCs5Hx9zLFZsDi_6muster5agent7storage5testss_9test_iter
FN:23,_RNvXNtNtCs5Hx9zLFZsDi_6muster5agent7storageNtB2_7StorageNtNtCs4Vq2ZLagKfv_4core7default7Default7default
FN:310,_RNCNvMs_NtNtCs5Hx9zLFZsDi_6muster5agent7storageNtB6_7Storage16visible_index_of0Ba_
FN:307,_RNvMs_NtNtCs5Hx9zLFZsDi_6muster5agent7storageNtB4_7Storage16visible_index_of
FN:47,_RNvMs_NtNtCs5Hx9zLFZsDi_6muster5agent7storageNtB4_7Storage4load
FNDA:352,_RNCNvMs_NtNtCs3bOdyUEi4qt_6muster5agent7storageNtB6_7Storage11child_count0Ba_
FNDA:123,_RNCNvMs_NtNtCs3bOdyUEi4qt_6muster5agent7storageNtB6_7Storage11root_agents0Ba_
FNDA:0,_RNCNvMs_NtNtCs3bOdyUEi4qt_6muster5agent7storageNtB6_7Storage12alive_agents0Ba_
FNDA:352,_RNCNvMs_NtNtCs3bOdyUEi4qt_6muster5agent7storageNtB6_7Storage12has_children0Ba_
FNDA:1,_RNCNvMs_NtNtCs3bOdyUEi4qt_6muster5agent7storageNtB6_7Storage16find_by_short_id0Ba_
FNDA:0,_RNCNvMs_NtNtCs3bOdyUEi4qt_6muster5agent7storageNtB6_7Storage16visible_index_of0Ba_
FNDA:0,_RNCNvMs_NtNtCs3bOdyUEi4qt_6muster5agent7storageNtB6_7Storage3get0Ba_
FNDA:4,_RNCNvMs_NtNtCs3bOdyUEi4qt_6muster5agent7storageNtB6_7Storage6remove0Ba_
FNDA:7,_RNCNvMs_NtNtCs3bOdyUEi4qt_6muster5agent7storageNtB6_7Storage7get_mut0Ba_
FNDA:0,_RNCNvMs_NtNtCs3bOdyUEi4qt_6muster5agent7storageNtB6_7Storage7save_to0Ba_
FNDA:0,_RNCNvMs_NtNtCs3bOdyUEi4qt_6muster5agent7storageNtB6_7Storage7save_tos_0Ba_
FNDA:2,_RNCNvMs_NtNtCs3bOdyUEi4qt_6muster5agent7storageNtB6_7Storage8children0Ba_
FNDA:0,_RNCNvMs_NtNtCs3bOdyUEi4qt_6muster5agent7storageNtB6_7Storage9load_from0Ba_
FNDA:0,_RNCNvMs_NtNtCs3bOdyUEi4qt_6muster5agent7storageNtB6_7Storage9load_froms_0Ba_
FNDA:88,_RNvMs_NtNtCs3bOdyUEi4qt_6muster5agent7storageNtB4_7Storage11child_count
FNDA:2,_RNvMs_NtNtCs3bOdyUEi4qt_6muster5agent7storageNtB4_7Storage11descendants
FNDA:59,_RNvMs_NtNtCs3bOdyUEi4qt_6muster5agent7storageNtB4_7Storage11root_agents
FNDA:0,_RNvMs_NtNtCs3bOdyUEi4qt_6muster5agent7storageNtB4_7Storage12alive_agents
FNDA:2,_RNvMs_NtNtCs3bOdyUEi4qt_6muster5agent7storageNtB4_7Storage12get_by_index
FNDA:88,_RNvMs_NtNtCs3bOdyUEi4qt_6muster5agent7storageNtB4_7Storage12has_children
FNDA:0,_RNvMs_NtNtCs3bOdyUEi4qt_6muster5agent7storageNtB4_7Storage13root_ancestor
FNDA:18,_RNvMs_NtNtCs3bOdyUEi4qt_6muster5agent7storageNtB4_7Storage13visible_count
FNDA:1,_RNvMs_NtNtCs3bOdyUEi4qt_6muster5agent7storageNtB4_7Storage14descendant_ids
FNDA:59,_RNvMs_NtNtCs3bOdyUEi4qt_6muster5agent7storageNtB4_7Storage14visible_agents
FNDA:1,_RNvMs_NtNtCs3bOdyUEi4qt_6muster5agent7storageNtB4_7Storage16find_by_short_id
FNDA:0,_RNvMs_NtNtCs3bOdyUEi4qt_6muster5agent7storageNtB4_7Storage16get_by_index_mut
FNDA:18,_RNvMs_NtNtCs3bOdyUEi4qt_6muster5agent7storageNtB4_7Storage16visible_agent_at
FNDA:0,_RNvMs_NtNtCs3bOdyUEi4qt_6muster5agent7storageNtB4_7Storage16visible_index_of
FNDA:0,_RNvMs_NtNtCs3bOdyUEi4qt_6muster5agent7storageNtB4_7Storage17next_window_index
FNDA:2,_RNvMs_NtNtCs3bOdyUEi4qt_6muster5agent7storageNtB4_7Storage19collect_descendants
FNDA:123,_RNvMs_NtNtCs3bOdyUEi4qt_6muster5agent7storageNtB4_7Storage21add_visible_recursive
FNDA:1,_RNvMs_NtNtCs3bOdyUEi4qt_6muster5agent7storageNtB4_7Storage23remove_with_descendants
FNDA:146,_RNvMs_NtNtCs3bOdyUEi4qt_6muster5agent7storageNtB4_7Storage3add
FNDA:0,_RNvMs_NtNtCs3bOdyUEi4qt_6muster5agent7storageNtB4_7Storage3get
FNDA:58,_RNvMs_NtNtCs3bOdyUEi4qt_6muster5agent7storageNtB4_7Storage3len
FNDA:92,_RNvMs_NtNtCs3bOdyUEi4qt_6muster5agent7storageNtB4_7Storage3new
FNDA:84,_RNvMs_NtNtCs3bOdyUEi4qt_6muster5agent7storageNtB4_7Storage4iter
FNDA:36,_RNvMs_NtNtCs3bOdyUEi4qt_6muster5agent7storageNtB4_7Storage4load
FNDA:57,_RNvMs_NtNtCs3bOdyUEi4qt_6muster5agent7storageNtB4_7Storage4save
FNDA:3,_RNvMs_NtNtCs3bOdyUEi4qt_6muster5agent7storageNtB4_7Storage5clear
FNDA:0,_RNvMs_NtNtCs3bOdyUEi4qt_6muster5agent7storageNtB4_7Storage5depth
FNDA:4,_RNvMs_NtNtCs3bOdyUEi4qt_6muster5agent7storageNtB4_7Storage6remove
FNDA:7,_RNvMs_NtNtCs3bOdyUEi4qt_6muster5agent7storageNtB4_7Storage7get_mut
FNDA:60,_RNvMs_NtNtCs3bOdyUEi4qt_6muster5agent7storageNtB4_7Storage7save_to
FNDA:2,_RNvMs_NtNtCs3bOdyUEi4qt_6muster5agent7storageNtB4_7Storage8children
FNDA:4,_RNvMs_NtNtCs3bOdyUEi4qt_6muster5agent7storageNtB4_7Storage8is_empty
FNDA:4,_RNvMs_NtNtCs3bOdyUEi4qt_6muster5agent7storageNtB4_7Storage8iter_mut
FNDA:37,_RNvMs_NtNtCs3bOdyUEi4qt_6muster5agent7storageNtB4_7Storage9load_from
FNDA:92,_RNvNtNtCs3bOdyUEi4qt_6muster5agent7storage15default_version
FNDA:37,_RNvXNtNtCs3bOdyUEi4qt_6muster5agent7storageNtB2_7StorageNtNtCs4Vq2ZLagKfv_4core7default7Default7default
FNDA:4,_RNCNvMs_NtNtCs5Hx9zLFZsDi_6muster5agent7storageNtB6_7Storage11child_count0Ba_
FNDA:62,_RNCNvMs_NtNtCs5Hx9zLFZsDi_6muster5agent7storageNtB6_7Storage11root_agents0Ba_
FNDA:2,_RNCNvMs_NtNtCs5Hx9zLFZsDi_6muster5agent7storageNtB6_7Storage12alive_agents0Ba_
FNDA:5,_RNCNvMs_NtNtCs5Hx9zLFZsDi_6muster5agent7storageNtB6_7Storage12has_children0Ba_
FNDA:2,_RNCNvMs_NtNtCs5Hx9zLFZsDi_6muster5agent7storageNtB6_7Storage16find_by_short_id0Ba_
FNDA:26,_RNCNvMs_NtNtCs5Hx9zLFZsDi_6muster5agent7storageNtB6_7Storage3get0Ba_
FNDA:10,_RNCNvMs_NtNtCs5Hx9zLFZsDi_6muster5agent7storageNtB6_7Storage6remove0Ba_
FNDA:7,_RNCNvMs_NtNtCs5Hx9zLFZsDi_6muster5agent7storageNtB6_7Storage7get_mut0Ba_
FNDA:0,_RNCNvMs_NtNtCs5Hx9zLFZsDi_6muster5agent7storageNtB6_7Storage7save_to0Ba_
FNDA:0,_RNCNvMs_NtNtCs5Hx9zLFZsDi_6muster5agent7storageNtB6_7Storage7save_tos_0Ba_
FNDA:63,_RNCNvMs_NtNtCs5Hx9zLFZsDi_6muster5agent7storageNtB6_7Storage8children0Ba_
FNDA:1,_RNCNvMs_NtNtCs5Hx9zLFZsDi_6muster5agent7storageNtB6_7Storage9load_from0Ba_
FNDA:0,_RNCNvMs_NtNtCs5Hx9zLFZsDi_6muster5agent7storageNtB6_7Storage9load_froms_0Ba_
FNDA:2,_RNCNvNtNtNtCs5Hx9zLFZsDi_6muster5agent7storage5testss_13test_iter_mut0B9_
FNDA:2,_RNCNvNtNtNtCs5Hx9zLFZsDi_6muster5agent7storage5testss_16test_root_agents0B9_
FNDA:2,_RNCNvNtNtNtCs5Hx9zLFZsDi_6muster5agent7storage5testss_9test_iter0B9_
FNDA:2,_RNvMs_NtNtCs5Hx9zLFZsDi_6muster5agent7storageNtB4_7Storage11child_count
FNDA:7,_RNvMs_NtNtCs5Hx9zLFZsDi_6muster5agent7storageNtB4_7Storage11descendants
FNDA:61,_RNvMs_NtNtCs5Hx9zLFZsDi_6muster5agent7storageNtB4_7Storage11root_agents
FNDA:1,_RNvMs_NtNtCs5Hx9zLFZsDi_6muster5agent7storageNtB4_7Storage12alive_agents
FNDA:4,_RNvMs_NtNtCs5Hx9zLFZsDi_6muster5agent7storageNtB4_7Storage12get_by_index
FNDA:4,_RNvMs_NtNtCs5Hx9zLFZsDi_6muster5agent7storageNtB4_7Storage12has_children
FNDA:4,_RNvMs_NtNtCs5Hx9zLFZsDi_6muster5agent7storageNtB4_7Storage13root_ancestor
FNDA:13,_RNvMs_NtNtCs5Hx9zLFZsDi_6muster5agent7storageNtB4_7Storage13visible_count
FNDA:2,_RNvMs_NtNtCs5Hx9zLFZsDi_6muster5agent7storageNtB4_7Storage14descendant_ids
FNDA:60,_RNvMs_NtNtCs5Hx9zLFZsDi_6muster5agent7storageNtB4_7Storage14visible_agents
FNDA:2,_RNvMs_NtNtCs5Hx9zLFZsDi_6muster5agent7storageNtB4_7Storage16find_by_short_id
FNDA:1,_RNvMs_NtNtCs5Hx9zLFZsDi_6muster5agent7storageNtB4_7Storage16get_by_index_mut
FNDA:45,_RNvMs_NtNtCs5Hx9zLFZsDi_6muster5agent7storageNtB4_7Storage16visible_agent_at
FNDA:3,_RNvMs_NtNtCs5Hx9zLFZsDi_6muster5agent7storageNtB4_7Storage17next_window_index
FNDA:16,_RNvMs_NtNtCs5Hx9zLFZsDi_6muster5agent7storageNtB4_7Storage19collect_descendants
FNDA:58,_RNvMs_NtNtCs5Hx9zLFZsDi_6muster5agent7storageNtB4_7Storage21add_visible_recursive
FNDA:2,_RNvMs_NtNtCs5Hx9zLFZsDi_6muster5agent7storageNtB4_7Storage23remove_with_descendants
FNDA:95,_RNvMs_NtNtCs5Hx9zLFZsDi_6muster5agent7storageNtB4_7Storage3add
FNDA:17,_RNvMs_NtNtCs5Hx9zLFZsDi_6muster5agent7storageNtB4_7Storage3get
FNDA:7,_RNvMs_NtNtCs5Hx9zLFZsDi_6muster5agent7storageNtB4_7Storage3len
FNDA:102,_RNvMs_NtNtCs5Hx9zLFZsDi_6muster5agent7storageNtB4_7Storage3new
FNDA:12,_RNvMs_NtNtCs5Hx9zLFZsDi_6muster5agent7storageNtB4_7Storage4iter
FNDA:5,_RNvMs_NtNtCs5Hx9zLFZsDi_6muster5agent7storageNtB4_7Storage4save
FNDA:2,_RNvMs_NtNtCs5Hx9zLFZsDi_6muster5agent7storageNtB4_7Storage5clear
FNDA:3,_RNvMs_NtNtCs5Hx9zLFZsDi_6muster5agent7storageNtB4_7Storage5depth
FNDA:7,_RNvMs_NtNtCs5Hx9zLFZsDi_6muster5agent7storageNtB4_7Storage6remove
FNDA:7,_RNvMs_NtNtCs5Hx9zLFZsDi_6muster5agent7storageNtB4_7Storage7get_mut
FNDA:6,_RNvMs_NtNtCs5Hx9zLFZsDi_6muster5agent7storageNtB4_7Storage7save_to
FNDA:24,_RNvMs_NtNtCs5Hx9zLFZsDi_6muster5agent7storageNtB4_7Storage8children
FNDA:6,_RNvMs_NtNtCs5Hx9zLFZsDi_6muster5agent7storageNtB4_7Storage8is_empty
FNDA:3,_RNvMs_NtNtCs5Hx9zLFZsDi_6muster5agent7storageNtB4_7Storage8iter_mut
FNDA:2,_RNvMs_NtNtCs5Hx9zLFZsDi_6muster5agent7storageNtB4_7Storage9load_from
FNDA:102,_RNvNtNtCs5Hx9zLFZsDi_6muster5agent7storage15default_version
FNDA:32,_RNvNtNtNtCs5Hx9zLFZsDi_6muster5agent7storage5tests17create_test_agent
FNDA:18,_RNvNtNtNtCs5Hx9zLFZsDi_6muster5agent7storage5tests18create_child_agent
FNDA:1,_RNvNtNtNtCs5Hx9zLFZsDi_6muster5agent7storage5testss_10test_clear
FNDA:1,_RNvNtNtNtCs5Hx9zLFZsDi_6muster5agent7storage5testss_10test_depth
FNDA:1,_RNvNtNtNtCs5Hx9zLFZsDi_6muster5agent7storage5testss_12test_get_mut
FNDA:1,_RNvNtNtNtCs5Hx9zLFZsDi_6muster5agent7storage5testss_13test_children
FNDA:1,_RNvNtNtNtCs5Hx9zLFZsDi_6muster5agent7storage5testss_13test_iter_mut
FNDA:1,_RNvNtNtNtCs5Hx9zLFZsDi_6muster5agent7storage5testss_14test_add_agent
FNDA:1,_RNvNtNtNtCs5Hx9zLFZsDi_6muster5agent7storage5testss_14test_get_agent
FNDA:1,_RNvNtNtNtCs5Hx9zLFZsDi_6muster5agent7storage5testss_16test_child_count
FNDA:1,_RNvNtNtNtCs5Hx9zLFZsDi_6muster5agent7storage5testss_16test_descendants
FNDA:1,_RNvNtNtNtCs5Hx9zLFZsDi_6muster5agent7storage5testss_16test_new_storage
FNDA:1,_RNvNtNtNtCs5Hx9zLFZsDi_6muster5agent7storage5testss_16test_root_agents
FNDA:1,_RNvNtNtNtCs5Hx9zLFZsDi_6muster5agent7storage5testss_17test_alive_agents
FNDA:1,_RNvNtNtNtCs5Hx9zLFZsDi_6muster5agent7storage5testss_17test_get_by_index
FNDA:1,_RNvNtNtNtCs5Hx9zLFZsDi_6muster5agent7storage5testss_17test_has_children
FNDA:1,_RNvNtNtNtCs5Hx9zLFZsDi_6muster5agent7storage5testss_17test_remove_agent
FNDA:1,_RNvNtNtNtCs5Hx9zLFZsDi_6muster5agent7storage5testss_18test_default_trait
FNDA:1,_RNvNtNtNtCs5Hx9zLFZsDi_6muster5agent7storage5testss_18test_root_ancestor
FNDA:1,_RNvNtNtNtCs5Hx9zLFZsDi_6muster5agent7storage5testss_18test_save_and_load
FNDA:1,_RNvNtNtNtCs5Hx9zLFZsDi_6muster5agent7storage5testss_18test_visible_count
FNDA:1,_RNvNtNtNtCs5Hx9zLFZsDi_6muster5agent7storage5testss_21test_find_by_short_id
FNDA:1,_RNvNtNtNtCs5Hx9zLFZsDi_6muster5agent7storage5testss_21test_get_by_index_mut
FNDA:1,_RNvNtNtNtCs5Hx9zLFZsDi_6muster5agent7storage5testss_21test_visible_agent_at
FNDA:1,_RNvNtNtNtCs5Hx9zLFZsDi_6muster5agent7storage5testss_22test_next_window_index
FNDA:1,_RNvNtNtNtCs5Hx9zLFZsDi_6muster5agent7storage5testss_23test_remove_nonexistent
FNDA:1,_RNvNtNtNtCs5Hx9zLFZsDi_6muster5agent7storage5testss_28test_remove_with_descendants
FNDA:1,_RNvNtNtNtCs5Hx9zLFZsDi_6muster5agent7storage5testss_28test_visible_agents_expanded
FNDA:1,_RNvNtNtNtCs5Hx9zLFZsDi_6muster5agent7storage5testss_33test_visible_agents_all_collapsed
FNDA:1,_RNvNtNtNtCs5Hx9zLFZsDi_6muster5agent7storage5testss_35test_load_nonexistent_returns_empty
FNDA:1,_RNvNtNtNtCs5Hx9zLFZsDi_6muster5agent7storage5testss_9test_iter
FNDA:75,_RNvXNtNtCs5Hx9zLFZsDi_6muster5agent7storageNtB2_7StorageNtNtCs4Vq2ZLagKfv_4core7default7Default7default
FNDA:0,_RNCNvMs_NtNtCs5Hx9zLFZsDi_6muster5agent7storageNtB6_7Storage16visible_index_of0Ba_
FNDA:0,_RNvMs_NtNtCs5Hx9zLFZsDi_6muster5agent7storageNtB4_7Storage16visible_index_of
FNDA:0,_RNvMs_NtNtCs5Hx9zLFZsDi_6muster5agent7storageNtB4_7Storage4load
FNF:84
FNH:79
DA:23,112
DA:24,112
DA:25,112
DA:28,194
DA:29,194
DA:30,194
DA:35,194
DA:36,194
DA:37,194
DA:38,194
DA:39,194
DA:40,194
DA:47,36
DA:48,36
DA:49,36
DA:50,36
DA:52,0
DA:54,36
DA:61,39
DA:62,39
DA:63,39
DA:64,38
DA:65,38
DA:66,38
DA:67,39
DA:74,62
DA:75,62
DA:76,62
DA:77,62
DA:84,66
DA:85,66
DA:86,66
DA:87,0
DA:88,0
DA:89,0
DA:90,66
DA:91,66
DA:92,66
DA:93,66
DA:94,66
DA:97,241
DA:98,241
DA:99,241
DA:102,11
DA:103,14
DA:104,10
DA:106,1
DA:108,11
DA:112,17
DA:113,26
DA:114,17
DA:117,14
DA:118,14
DA:119,14
DA:123,6
DA:124,6
DA:125,6
DA:128,1
DA:129,1
DA:130,1
DA:134,3
DA:135,3
DA:136,3
DA:137,3
DA:138,3
DA:142,65
DA:143,65
DA:144,65
DA:148,10
DA:149,10
DA:150,10
DA:154,1
DA:155,2
DA:156,1
DA:159,5
DA:160,5
DA:161,5
DA:164,96
DA:165,96
DA:166,96
DA:169,7
DA:170,7
DA:171,7
DA:177,120
DA:178,185
DA:179,120
DA:183,26
DA:184,26
DA:185,26
DA:186,65
DA:187,26
DA:188,26
DA:192,92
DA:193,357
DA:194,92
DA:198,90
DA:199,90
DA:200,90
DA:201,356
DA:202,90
DA:203,90
DA:207,4
DA:208,4
DA:209,4
DA:210,1
DA:211,3
DA:214,3
DA:215,7
DA:216,4
DA:217,4
DA:218,4
DA:219,0
DA:222,3
DA:223,4
DA:227,9
DA:228,9
DA:229,9
DA:230,9
DA:231,9
DA:234,18
DA:235,18
DA:236,9
DA:237,9
DA:238,9
DA:239,18
DA:243,3
DA:244,3
DA:245,3
DA:249,3
DA:250,3
DA:251,0
DA:254,3
DA:255,3
DA:256,6
DA:257,3
DA:258,3
DA:259,3
DA:260,3
DA:261,0
DA:264,3
DA:265,3
DA:270,119
DA:271,119
DA:272,176
DA:273,176
DA:274,176
DA:275,119
DA:276,119
DA:279,181
DA:280,181
DA:281,181
DA:282,181
DA:283,181
DA:284,181
DA:285,181
DA:286,181
DA:287,7
DA:288,5
DA:289,5
DA:290,174
DA:291,181
DA:295,63
DA:296,63
DA:297,63
DA:301,31
DA:302,31
DA:303,31
DA:307,0
DA:308,0
DA:309,0
DA:310,0
DA:311,0
DA:314,3
DA:316,3
DA:317,3
DA:320,3
DA:321,9
DA:322,6
DA:323,6
DA:324,6
DA:326,3
DA:327,3
DA:331,3
DA:333,3
DA:334,3
DA:335,3
DA:336,3
DA:337,3
DA:338,3
DA:339,3
DA:340,3
DA:350,32
DA:351,32
DA:352,32
DA:353,32
DA:354,32
DA:355,32
DA:356,32
DA:358,32
DA:361,1
DA:362,1
DA:363,1
DA:364,1
DA:365,1
DA:366,1
DA:369,1
DA:370,1
DA:371,1
DA:373,1
DA:375,1
DA:376,1
DA:377,1
DA:380,1
DA:381,1
DA:382,1
DA:383,1
DA:385,1
DA:386,1
DA:388,1
DA:389,1
DA:390,1
DA:391,1
DA:392,1
DA:395,1
DA:396,1
DA:397,1
DA:398,1
DA:399,1
DA:402,1
DA:403,1
DA:404,1
DA:405,1
DA:407,1
DA:409,1
DA:410,1
DA:411,1
DA:414,1
DA:415,1
DA:416,1
DA:417,1
DA:419,1
DA:421,1
DA:422,1
DA:423,1
DA:425,1
DA:426,1
DA:429,1
DA:430,1
DA:433,1
DA:434,1
DA:435,1
DA:436,1
DA:438,1
DA:439,1
DA:442,1
DA:443,1
DA:446,1
DA:447,1
DA:448,1
DA:451,1
DA:452,1
DA:453,1
DA:455,1
DA:456,1
DA:457,1
DA:459,1
DA:460,1
DA:463,1
DA:464,1
DA:467,1
DA:468,1
DA:469,1
DA:470,1
DA:472,1
DA:474,1
DA:475,1
DA:476,1
DA:479,1
DA:480,1
DA:482,1
DA:483,1
DA:485,1
DA:486,1
DA:488,1
DA:489,1
DA:491,1
DA:492,1
DA:493,1
DA:494,1
DA:497,1
DA:498,1
DA:499,1
DA:500,1
DA:502,1
DA:504,1
DA:505,1
DA:508,1
DA:509,1
DA:510,1
DA:511,1
DA:513,2
DA:514,1
DA:515,1
DA:518,1
DA:519,1
DA:520,1
DA:521,1
DA:523,2
DA:524,2
DA:525,2
DA:527,2
DA:528,1
DA:531,1
DA:532,1
DA:533,1
DA:535,1
DA:536,1
DA:537,1
DA:539,1
DA:540,1
DA:542,1
DA:543,1
DA:544,1
DA:545,1
DA:546,1
DA:549,1
DA:550,1
DA:551,1
DA:553,1
DA:554,1
DA:555,1
DA:558,1
DA:559,1
DA:560,1
DA:561,1
DA:562,1
DA:566,18
DA:567,18
DA:568,18
DA:569,18
DA:570,18
DA:571,18
DA:572,18
DA:573,18
DA:574,18
DA:575,18
DA:576,18
DA:577,18
DA:579,18
DA:582,1
DA:583,1
DA:584,1
DA:585,1
DA:586,1
DA:588,1
DA:589,1
DA:590,1
DA:592,1
DA:593,1
DA:594,2
DA:595,1
DA:598,1
DA:599,1
DA:600,1
DA:601,1
DA:602,1
DA:603,1
DA:605,1
DA:606,1
DA:607,1
DA:609,1
DA:610,1
DA:611,1
DA:614,1
DA:615,1
DA:616,1
DA:617,1
DA:618,1
DA:620,1
DA:621,1
DA:623,1
DA:624,1
DA:625,1
DA:628,1
DA:629,1
DA:630,1
DA:631,1
DA:633,1
DA:634,1
DA:636,1
DA:637,1
DA:638,1
DA:639,1
DA:642,1
DA:643,1
DA:644,1
DA:645,1
DA:646,1
DA:647,1
DA:648,1
DA:649,1
DA:650,1
DA:651,1
DA:652,1
DA:653,1
DA:654,1
DA:655,1
DA:656,1
DA:657,1
DA:658,1
DA:660,1
DA:662,1
DA:663,1
DA:664,1
DA:667,1
DA:668,1
DA:672,1
DA:673,1
DA:677,1
DA:678,1
DA:679,1
DA:680,1
DA:684,1
DA:685,1
DA:688,1
DA:689,1
DA:690,1
DA:691,1
DA:692,1
DA:693,1
DA:694,1
DA:695,1
DA:696,1
DA:697,1
DA:698,1
DA:699,1
DA:700,1
DA:701,1
DA:702,1
DA:703,1
DA:704,1
DA:707,1
DA:708,1
DA:709,1
DA:710,1
DA:712,1
DA:713,1
DA:714,1
DA:717,1
DA:718,1
DA:719,1
DA:720,1
DA:721,1
DA:722,1
DA:723,1
DA:724,1
DA:725,1
DA:726,1
DA:727,1
DA:728,1
DA:729,1
DA:730,1
DA:731,1
DA:732,1
DA:733,1
DA:735,1
DA:737,1
DA:738,1
DA:739,1
DA:741,1
DA:742,1
DA:743,1
DA:744,1
DA:747,1
DA:748,1
DA:749,1
DA:750,1
DA:751,1
DA:753,1
DA:754,1
DA:757,1
DA:758,1
DA:759,1
DA:760,1
DA:763,1
DA:764,1
DA:765,1
DA:766,1
DA:767,1
DA:768,1
DA:769,1
DA:771,1
DA:772,1
DA:774,1
DA:775,1
DA:776,1
DA:777,1
DA:778,1
DA:779,1
DA:780,1
DA:783,1
DA:784,1
DA:785,1
DA:786,1
DA:787,1
DA:789,1
DA:790,1
DA:792,1
DA:793,1
DA:796,1
DA:797,1
DA:800,1
DA:801,1
DA:802,1
DA:805,1
DA:806,1
DA:807,1
DA:808,1
DA:809,1
DA:811,1
DA:812,1
DA:814,1
DA:815,1
DA:818,1
DA:819,1
DA:820,1
DA:821,1
DA:822,1
DA:823,1
DA:824,1
DA:825,1
DA:826,1
DA:827,1
DA:828,1
DA:829,1
DA:830,1
DA:831,1
DA:832,1
DA:833,1
DA:834,1
DA:837,1
DA:838,1
DA:839,1
DA:840,1
DA:842,1
DA:844,1
DA:845,1
DA:846,1
DA:847,1
DA:850,1
DA:851,1
DA:852,1
DA:853,1
DA:855,1
DA:857,1
DA:859,1
DA:860,1
DA:862,1
DA:863,1
DA:864,1
BRF:0
BRH:0
LF:578
LH:561
end_of_record
SF:/home/quinten/Documents/Software_Development/muster/src/app/event.rs
FN:30,_RNvMNtNtCs3bOdyUEi4qt_6muster3app5eventNtB2_7Handler3new
FN:41,_RNvMNtNtCs3bOdyUEi4qt_6muster3app5eventNtB2_7Handler4next
FN:56,_RNvMNtNtCs3bOdyUEi4qt_6muster3app5eventNtB2_7Handler9tick_rate
FN:62,_RNvXs_NtNtCs3bOdyUEi4qt_6muster3app5eventNtB4_7HandlerNtNtCs4Vq2ZLagKfv_4core7default7Default7default
FN:30,_RNvMNtNtCs5Hx9zLFZsDi_6muster3app5eventNtB2_7Handler3new
FN:56,_RNvMNtNtCs5Hx9zLFZsDi_6muster3app5eventNtB2_7Handler9tick_rate
FN:93,_RNvNtNtNtCs5Hx9zLFZsDi_6muster3app5event5testss_16test_event_clone
FN:84,_RNvNtNtNtCs5Hx9zLFZsDi_6muster3app5event5testss_16test_event_debug
FN:72,_RNvNtNtNtCs5Hx9zLFZsDi_6muster3app5event5testss_22test_event_handler_new
FN:78,_RNvNtNtNtCs5Hx9zLFZsDi_6muster3app5event5testss_26test_event_handler_default
FN:62,_RNvXs_NtNtCs5Hx9zLFZsDi_6muster3app5eventNtB4_7HandlerNtNtCs4Vq2ZLagKfv_4core7default7Default7default
FN:41,_RNvMNtNtCs5Hx9zLFZsDi_6muster3app5eventNtB2_7Handler4next
FNDA:0,_RNvMNtNtCs3bOdyUEi4qt_6muster3app5eventNtB2_7Handler3new
FNDA:0,_RNvMNtNtCs3bOdyUEi4qt_6muster3app5eventNtB2_7Handler4next
FNDA:0,_RNvMNtNtCs3bOdyUEi4qt_6muster3app5eventNtB2_7Handler9tick_rate
FNDA:0,_RNvXs_NtNtCs3bOdyUEi4qt_6muster3app5eventNtB4_7HandlerNtNtCs4Vq2ZLagKfv_4core7default7Default7default
FNDA:2,_RNvMNtNtCs5Hx9zLFZsDi_6muster3app5eventNtB2_7Handler3new
FNDA:2,_RNvMNtNtCs5Hx9zLFZsDi_6muster3app5eventNtB2_7Handler9tick_rate
FNDA:1,_RNvNtNtNtCs5Hx9zLFZsDi_6muster3app5event5testss_16test_event_clone
FNDA:1,_RNvNtNtNtCs5Hx9zLFZsDi_6muster3app5event5testss_16test_event_debug
FNDA:1,_RNvNtNtNtCs5Hx9zLFZsDi_6muster3app5event5testss_22test_event_handler_new
FNDA:1,_RNvNtNtNtCs5Hx9zLFZsDi_6muster3app5event5testss_26test_event_handler_default
FNDA:1,_RNvXs_NtNtCs5Hx9zLFZsDi_6muster3app5eventNtB4_7HandlerNtNtCs4Vq2ZLagKfv_4core7default7Default7default
FNDA:0,_RNvMNtNtCs5Hx9zLFZsDi_6muster3app5eventNtB2_7Handler4next
FNF:8
FNH:7
DA:30,2
DA:31,2
DA:32,2
DA:33,2
DA:34,2
DA:41,0
DA:42,0
DA:43,0
DA:44,0
DA:45,0
DA:46,0
DA:47,0
DA:50,0
DA:52,0
DA:56,2
DA:57,2
DA:58,2
DA:62,1
DA:63,1
DA:64,1
DA:72,1
DA:73,1
DA:74,1
DA:75,1
DA:78,1
DA:79,1
DA:80,1
DA:81,1
DA:84,1
DA:85,1
DA:86,1
DA:88,1
DA:89,1
DA:90,1
DA:93,1
DA:94,1
DA:95,1
DA:96,1
DA:97,1
DA:98,1
BRF:0
BRH:0
LF:40
LH:31
end_of_record
SF:/home/quinten/Documents/Software_Development/muster/src/app/handler.rs
FN:232,_RNCNvMNtNtCs3bOdyUEi4qt_6muster3app7handlerNtB4_7Actions10kill_agent0B8_
FN:564,_RNCNvMNtNtCs3bOdyUEi4qt_6muster3app7handlerNtB4_7Actions10synthesize0B8_
FN:582,_RNCNvMNtNtCs3bOdyUEi4qt_6muster3app7handlerNtB4_7Actions10synthesizes0_0B8_
FN:588,_RNCNvMNtNtCs3bOdyUEi4qt_6muster3app7handlerNtB4_7Actions10synthesizes1_0B8_
FN:581,_RNCNvMNtNtCs3bOdyUEi4qt_6muster3app7handlerNtB4_7Actions10synthesizes_0B8_
FN:330,_RNCNvMNtNtCs3bOdyUEi4qt_6muster3app7handlerNtB4_7Actions11push_branch0B8_
FN:277,_RNCNvMNtNtCs3bOdyUEi4qt_6muster3app7handlerNtB4_7Actions12resume_agent0B8_
FN:446,_RNCNvMNtNtCs3bOdyUEi4qt_6muster3app7handlerNtB4_7Actions14spawn_children0B8_
FN:372,_RNCNvMNtNtCs3bOdyUEi4qt_6muster3app7handlerNtB4_7Actions14update_preview0B8_
FN:372,_RNCNvMNtNtCs3bOdyUEi4qt_6muster3app7handlerNtB4_7Actions14update_previews_0B8_
FN:315,_RNCNvMNtNtCs3bOdyUEi4qt_6muster3app7handlerNtB4_7Actions15attach_to_agent0B8_
FN:650,_RNCNvMNtNtCs3bOdyUEi4qt_6muster3app7handlerNtB4_7Actions19broadcast_to_leaves0B8_
FN:670,_RNCNvMNtNtCs3bOdyUEi4qt_6muster3app7handlerNtB4_7Actions19broadcast_to_leavess0_0B8_
FN:669,_RNCNvMNtNtCs3bOdyUEi4qt_6muster3app7handlerNtB4_7Actions19broadcast_to_leavess_0B8_
FN:201,_RNvMNtNtCs3bOdyUEi4qt_6muster3app7handlerNtB2_7Actions10kill_agent
FN:561,_RNvMNtNtCs3bOdyUEi4qt_6muster3app7handlerNtB2_7Actions10synthesize
FN:260,_RNvMNtNtCs3bOdyUEi4qt_6muster3app7handlerNtB2_7Actions11pause_agent
FN:327,_RNvMNtNtCs3bOdyUEi4qt_6muster3app7handlerNtB2_7Actions11push_branch
FN:399,_RNvMNtNtCs3bOdyUEi4qt_6muster3app7handlerNtB2_7Actions11update_diff
FN:146,_RNvMNtNtCs3bOdyUEi4qt_6muster3app7handlerNtB2_7Actions12create_agent
FN:275,_RNvMNtNtCs3bOdyUEi4qt_6muster3app7handlerNtB2_7Actions12resume_agent
FN:36,_RNvMNtNtCs3bOdyUEi4qt_6muster3app7handlerNtB2_7Actions13handle_action
FN:123,_RNvMNtNtCs3bOdyUEi4qt_6muster3app7handlerNtB2_7Actions14handle_confirm
FN:436,_RNvMNtNtCs3bOdyUEi4qt_6muster3app7handlerNtB2_7Actions14spawn_children
FN:364,_RNvMNtNtCs3bOdyUEi4qt_6muster3app7handlerNtB2_7Actions14update_preview
FN:312,_RNvMNtNtCs3bOdyUEi4qt_6muster3app7handlerNtB2_7Actions15attach_to_agent
FN:626,_RNvMNtNtCs3bOdyUEi4qt_6muster3app7handlerNtB2_7Actions15toggle_collapse
FN:735,_RNvMNtNtCs3bOdyUEi4qt_6muster3app7handlerNtB2_7Actions17sync_agent_status
FN:647,_RNvMNtNtCs3bOdyUEi4qt_6muster3app7handlerNtB2_7Actions19broadcast_to_leaves
FN:701,_RNvMNtNtCs3bOdyUEi4qt_6muster3app7handlerNtB2_7Actions20resize_agent_windows
FN:24,_RNvMNtNtCs3bOdyUEi4qt_6muster3app7handlerNtB2_7Actions3new
FN:338,_RNvMNtNtCs3bOdyUEi4qt_6muster3app7handlerNtB2_7Actions9reset_all
FN:761,_RNvXs_NtNtCs3bOdyUEi4qt_6muster3app7handlerNtB4_7ActionsNtNtCs4Vq2ZLagKfv_4core7default7Default7default
FN:232,_RNCNvMNtNtCs5Hx9zLFZsDi_6muster3app7handlerNtB4_7Actions10kill_agent0B8_
FN:564,_RNCNvMNtNtCs5Hx9zLFZsDi_6muster3app7handlerNtB4_7Actions10synthesize0B8_
FN:582,_RNCNvMNtNtCs5Hx9zLFZsDi_6muster3app7handlerNtB4_7Actions10synthesizes0_0B8_
FN:588,_RNCNvMNtNtCs5Hx9zLFZsDi_6muster3app7handlerNtB4_7Actions10synthesizes1_0B8_
FN:581,_RNCNvMNtNtCs5Hx9zLFZsDi_6muster3app7handlerNtB4_7Actions10synthesizes_0B8_
FN:330,_RNCNvMNtNtCs5Hx9zLFZsDi_6muster3app7handlerNtB4_7Actions11push_branch0B8_
FN:277,_RNCNvMNtNtCs5Hx9zLFZsDi_6muster3app7handlerNtB4_7Actions12resume_agent0B8_
FN:372,_RNCNvMNtNtCs5Hx9zLFZsDi_6muster3app7handlerNtB4_7Actions14update_preview0B8_
FN:372,_RNCNvMNtNtCs5Hx9zLFZsDi_6muster3app7handlerNtB4_7Actions14update_previews_0B8_
FN:315,_RNCNvMNtNtCs5Hx9zLFZsDi_6muster3app7handlerNtB4_7Actions15attach_to_agent0B8_
FN:650,_RNCNvMNtNtCs5Hx9zLFZsDi_6muster3app7handlerNtB4_7Actions19broadcast_to_leaves0B8_
FN:670,_RNCNvMNtNtCs5Hx9zLFZsDi_6muster3app7handlerNtB4_7Actions19broadcast_to_leavess0_0B8_
FN:669,_RNCNvMNtNtCs5Hx9zLFZsDi_6muster3app7handlerNtB4_7Actions19broadcast_to_leavess_0B8_
FN:201,_RNvMNtNtCs5Hx9zLFZsDi_6muster3app7handlerNtB2_7Actions10kill_agent
FN:561,_RNvMNtNtCs5Hx9zLFZsDi_6muster3app7handlerNtB2_7Actions10synthesize
FN:260,_RNvMNtNtCs5Hx9zLFZsDi_6muster3app7handlerNtB2_7Actions11pause_agent
FN:327,_RNvMNtNtCs5Hx9zLFZsDi_6muster3app7handlerNtB2_7Actions11push_branch
FN:399,_RNvMNtNtCs5Hx9zLFZsDi_6muster3app7handlerNtB2_7Actions11update_diff
FN:146,_RNvMNtNtCs5Hx9zLFZsDi_6muster3app7handlerNtB2_7Actions12create_agent
FN:275,_RNvMNtNtCs5Hx9zLFZsDi_6muster3app7handlerNtB2_7Actions12resume_agent
FN:36,_RNvMNtNtCs5Hx9zLFZsDi_6muster3app7handlerNtB2_7Actions13handle_action
FN:123,_RNvMNtNtCs5Hx9zLFZsDi_6muster3app7handlerNtB2_7Actions14handle_confirm
FN:364,_RNvMNtNtCs5Hx9zLFZsDi_6muster3app7handlerNtB2_7Actions14update_preview
FN:312,_RNvMNtNtCs5Hx9zLFZsDi_6muster3app7handlerNtB2_7Actions15attach_to_agent
FN:626,_RNvMNtNtCs5Hx9zLFZsDi_6muster3app7handlerNtB2_7Actions15toggle_collapse
FN:735,_RNvMNtNtCs5Hx9zLFZsDi_6muster3app7handlerNtB2_7Actions17sync_agent_status
FN:647,_RNvMNtNtCs5Hx9zLFZsDi_6muster3app7handlerNtB2_7Actions19broadcast_to_leaves
FN:701,_RNvMNtNtCs5Hx9zLFZsDi_6muster3app7handlerNtB2_7Actions20resize_agent_windows
FN:24,_RNvMNtNtCs5Hx9zLFZsDi_6muster3app7handlerNtB2_7Actions3new
FN:338,_RNvMNtNtCs5Hx9zLFZsDi_6muster3app7handlerNtB2_7Actions9reset_all
FN:772,_RNvNtNtNtCs5Hx9zLFZsDi_6muster3app7handler5tests15create_test_app
FN:777,_RNvNtNtNtCs5Hx9zLFZsDi_6muster3app7handler5testss_16test_handler_new
FN:783,_RNvNtNtNtCs5Hx9zLFZsDi_6muster3app7handler5testss_20test_handler_default
FN:960,_RNvNtNtNtCs5Hx9zLFZsDi_6muster3app7handler5testss_22test_sync_agent_status
FN:809,_RNvNtNtNtCs5Hx9zLFZsDi_6muster3app7handler5testss_23test_handle_action_help
FN:1031,_RNvNtNtNtCs5Hx9zLFZsDi_6muster3app7handler5testss_24test_handle_confirm_kill
FN:1017,_RNvNtNtNtCs5Hx9zLFZsDi_6muster3app7handler5testss_24test_handle_confirm_quit
FN:1417,_RNvNtNtNtCs5Hx9zLFZsDi_6muster3app7handler5testss_24test_synthesize_no_agent
FN:881,_RNvNtNtNtCs5Hx9zLFZsDi_6muster3app7handler5testss_25test_handle_action_cancel
FN:865,_RNvNtNtNtCs5Hx9zLFZsDi_6muster3app7handler5testss_25test_handle_action_scroll
FN:1057,_RNvNtNtNtCs5Hx9zLFZsDi_6muster3app7handler5testss_25test_handle_confirm_reset
FN:912,_RNvNtNtNtCs5Hx9zLFZsDi_6muster3app7handler5testss_25test_handle_kill_no_agent
FN:951,_RNvNtNtNtCs5Hx9zLFZsDi_6muster3app7handler5testss_25test_handle_push_no_agent
FN:1326,_RNvNtNtNtCs5Hx9zLFZsDi_6muster3app7handler5testss_25test_handle_scroll_bottom
FN:902,_RNvNtNtNtCs5Hx9zLFZsDi_6muster3app7handler5testss_25test_update_diff_no_agent
FN:931,_RNvNtNtNtCs5Hx9zLFZsDi_6muster3app7handler5testss_26test_handle_pause_no_agent
FN:922,_RNvNtNtNtCs5Hx9zLFZsDi_6muster3app7handler5testss_27test_handle_attach_no_agent
FN:994,_RNvNtNtNtCs5Hx9zLFZsDi_6muster3app7handler5testss_27test_handle_kill_with_agent
FN:1363,_RNvNtNtNtCs5Hx9zLFZsDi_6muster3app7handler5testss_27test_handle_push_with_agent
FN:941,_RNvNtNtNtCs5Hx9zLFZsDi_6muster3app7handler5testss_27test_handle_resume_no_agent
FN:1427,_RNvNtNtNtCs5Hx9zLFZsDi_6muster3app7handler5testss_27test_synthesize_no_children
FN:789,_RNvNtNtNtCs5Hx9zLFZsDi_6muster3app7handler5testss_28test_handle_action_new_agent
FN:892,_RNvNtNtNtCs5Hx9zLFZsDi_6muster3app7handler5testss_28test_update_preview_no_agent
FN:1337,_RNvNtNtNtCs5Hx9zLFZsDi_6muster3app7handler5testss_29test_create_agent_max_reached
FN:839,_RNvNtNtNtCs5Hx9zLFZsDi_6muster3app7handler5testss_29test_handle_action_navigation
FN:829,_RNvNtNtNtCs5Hx9zLFZsDi_6muster3app7handler5testss_29test_handle_action_switch_tab
FN:1490,_RNvNtNtNtCs5Hx9zLFZsDi_6muster3app7handler5testss_29test_handle_action_synthesize
FN:1386,_RNvNtNtNtCs5Hx9zLFZsDi_6muster3app7handler5testss_29test_toggle_collapse_no_agent
FN:1466,_RNvNtNtNtCs5Hx9zLFZsDi_6muster3app7handler5testss_31test_handle_action_add_children
FN:1396,_RNvNtNtNtCs5Hx9zLFZsDi_6muster3app7handler5testss_32test_toggle_collapse_no_children
FN:1542,_RNvNtNtNtCs5Hx9zLFZsDi_6muster3app7handler5testss_33test_broadcast_to_leaves_no_agent
FN:819,_RNvNtNtNtCs5Hx9zLFZsDi_6muster3app7handler5testss_33test_handle_action_quit_no_agents
FN:1455,_RNvNtNtNtCs5Hx9zLFZsDi_6muster3app7handler5testss_33test_handle_action_spawn_children
FN:1500,_RNvNtNtNtCs5Hx9zLFZsDi_6muster3app7handler5testss_34test_handle_action_toggle_collapse
FN:1275,_RNvNtNtNtCs5Hx9zLFZsDi_6muster3app7handler5testss_34test_sync_agent_status_with_agents
FN:1184,_RNvNtNtNtCs5Hx9zLFZsDi_6muster3app7handler5testss_36test_handle_attach_session_not_found
FN:1085,_RNvNtNtNtCs5Hx9zLFZsDi_6muster3app7handler5testss_36test_handle_pause_with_running_agent
FN:1111,_RNvNtNtNtCs5Hx9zLFZsDi_6muster3app7handler5testss_36test_handle_pause_with_stopped_agent
FN:969,_RNvNtNtNtCs5Hx9zLFZsDi_6muster3app7handler5testss_36test_handle_quit_with_running_agents
FN:1136,_RNvNtNtNtCs5Hx9zLFZsDi_6muster3app7handler5testss_36test_handle_resume_with_paused_agent
FN:1510,_RNvNtNtNtCs5Hx9zLFZsDi_6muster3app7handler5testss_37test_handle_action_broadcast_no_agent
FN:1159,_RNvNtNtNtCs5Hx9zLFZsDi_6muster3app7handler5testss_37test_handle_resume_with_running_agent
FN:1521,_RNvNtNtNtCs5Hx9zLFZsDi_6muster3app7handler5testss_39test_handle_action_broadcast_with_agent
FN:1552,_RNvNtNtNtCs5Hx9zLFZsDi_6muster3app7handler5testss_39test_resize_agent_windows_no_dimensions
FN:1228,_RNvNtNtNtCs5Hx9zLFZsDi_6muster3app7handler5testss_39test_update_diff_with_agent_no_worktree
FN:799,_RNvNtNtNtCs5Hx9zLFZsDi_6muster3app7handler5testss_40test_handle_action_new_agent_with_prompt
FN:1562,_RNvNtNtNtCs5Hx9zLFZsDi_6muster3app7handler5testss_41test_resize_agent_windows_with_dimensions
FN:1206,_RNvNtNtNtCs5Hx9zLFZsDi_6muster3app7handler5testss_41test_update_preview_with_agent_no_session
FN:1250,_RNvNtNtNtCs5Hx9zLFZsDi_6muster3app7handler5testss_42test_update_diff_with_agent_valid_worktree
FN:1587,_RNvNtNtNtCs5Hx9zLFZsDi_6muster3app7handler5testss_43test_resize_agent_windows_with_child_agents
FN:761,_RNvXs_NtNtCs5Hx9zLFZsDi_6muster3app7handlerNtB4_7ActionsNtNtCs4Vq2ZLagKfv_4core7default7Default7default
FN:446,_RNCNvMNtNtCs5Hx9zLFZsDi_6muster3app7handlerNtB4_7Actions14spawn_children0B8_
FN:436,_RNvMNtNtCs5Hx9zLFZsDi_6muster3app7handlerNtB2_7Actions14spawn_children
FNDA:0,_RNCNvMNtNtCs3bOdyUEi4qt_6muster3app7handlerNtB4_7Actions10kill_agent0B8_
FNDA:0,_RNCNvMNtNtCs3bOdyUEi4qt_6muster3app7handlerNtB4_7Actions10synthesize0B8_
FNDA:0,_RNCNvMNtNtCs3bOdyUEi4qt_6muster3app7handlerNtB4_7Actions10synthesizes0_0B8_
FNDA:0,_RNCNvMNtNtCs3bOdyUEi4qt_6muster3app7handlerNtB4_7Actions10synthesizes1_0B8_
FNDA:0,_RNCNvMNtNtCs3bOdyUEi4qt_6muster3app7handlerNtB4_7Actions10synthesizes_0B8_
FNDA:0,_RNCNvMNtNtCs3bOdyUEi4qt_6muster3app7handlerNtB4_7Actions11push_branch0B8_
FNDA:2,_RNCNvMNtNtCs3bOdyUEi4qt_6muster3app7handlerNtB4_7Actions12resume_agent0B8_
FNDA:0,_RNCNvMNtNtCs3bOdyUEi4qt_6muster3app7handlerNtB4_7Actions14spawn_children0B8_
FNDA:0,_RNCNvMNtNtCs3bOdyUEi4qt_6muster3app7handlerNtB4_7Actions14update_preview0B8_
FNDA:0,_RNCNvMNtNtCs3bOdyUEi4qt_6muster3app7handlerNtB4_7Actions14update_previews_0B8_
FNDA:0,_RNCNvMNtNtCs3bOdyUEi4qt_6muster3app7handlerNtB4_7Actions15attach_to_agent0B8_
FNDA:1,_RNCNvMNtNtCs3bOdyUEi4qt_6muster3app7handlerNtB4_7Actions19broadcast_to_leaves0B8_
FNDA:0,_RNCNvMNtNtCs3bOdyUEi4qt_6muster3app7handlerNtB4_7Actions19broadcast_to_leavess0_0B8_
FNDA:0,_RNCNvMNtNtCs3bOdyUEi4qt_6muster3app7handlerNtB4_7Actions19broadcast_to_leavess_0B8_
FNDA:2,_RNvMNtNtCs3bOdyUEi4qt_6muster3app7handlerNtB2_7Actions10kill_agent
FNDA:0,_RNvMNtNtCs3bOdyUEi4qt_6muster3app7handlerNtB2_7Actions10synthesize
FNDA:2,_RNvMNtNtCs3bOdyUEi4qt_6muster3app7handlerNtB2_7Actions11pause_agent
FNDA:1,_RNvMNtNtCs3bOdyUEi4qt_6muster3app7handlerNtB2_7Actions11push_branch
FNDA:1,_RNvMNtNtCs3bOdyUEi4qt_6muster3app7handlerNtB2_7Actions11update_diff
FNDA:17,_RNvMNtNtCs3bOdyUEi4qt_6muster3app7handlerNtB2_7Actions12create_agent
FNDA:2,_RNvMNtNtCs3bOdyUEi4qt_6muster3app7handlerNtB2_7Actions12resume_agent
FNDA:29,_RNvMNtNtCs3bOdyUEi4qt_6muster3app7handlerNtB2_7Actions13handle_action
FNDA:5,_RNvMNtNtCs3bOdyUEi4qt_6muster3app7handlerNtB2_7Actions14handle_confirm
FNDA:0,_RNvMNtNtCs3bOdyUEi4qt_6muster3app7handlerNtB2_7Actions14spawn_children
FNDA:1,_RNvMNtNtCs3bOdyUEi4qt_6muster3app7handlerNtB2_7Actions14update_preview
FNDA:1,_RNvMNtNtCs3bOdyUEi4qt_6muster3app7handlerNtB2_7Actions15attach_to_agent
FNDA:0,_RNvMNtNtCs3bOdyUEi4qt_6muster3app7handlerNtB2_7Actions15toggle_collapse
FNDA:2,_RNvMNtNtCs3bOdyUEi4qt_6muster3app7handlerNtB2_7Actions17sync_agent_status
FNDA:1,_RNvMNtNtCs3bOdyUEi4qt_6muster3app7handlerNtB2_7Actions19broadcast_to_leaves
FNDA:1,_RNvMNtNtCs3bOdyUEi4qt_6muster3app7handlerNtB2_7Actions20resize_agent_windows
FNDA:51,_RNvMNtNtCs3bOdyUEi4qt_6muster3app7handlerNtB2_7Actions3new
FNDA:1,_RNvMNtNtCs3bOdyUEi4qt_6muster3app7handlerNtB2_7Actions9reset_all
FNDA:0,_RNvXs_NtNtCs3bOdyUEi4qt_6muster3app7handlerNtB4_7ActionsNtNtCs4Vq2ZLagKfv_4core7default7Default7default
FNDA:0,_RNCNvMNtNtCs5Hx9zLFZsDi_6muster3app7handlerNtB4_7Actions10kill_agent0B8_
FNDA:2,_RNCNvMNtNtCs5Hx9zLFZsDi_6muster3app7handlerNtB4_7Actions10synthesize0B8_
FNDA:0,_RNCNvMNtNtCs5Hx9zLFZsDi_6muster3app7handlerNtB4_7Actions10synthesizes0_0B8_
FNDA:0,_RNCNvMNtNtCs5Hx9zLFZsDi_6muster3app7handlerNtB4_7Actions10synthesizes1_0B8_
FNDA:0,_RNCNvMNtNtCs5Hx9zLFZsDi_6muster3app7handlerNtB4_7Actions10synthesizes_0B8_
FNDA:1,_RNCNvMNtNtCs5Hx9zLFZsDi_6muster3app7handlerNtB4_7Actions11push_branch0B8_
FNDA:2,_RNCNvMNtNtCs5Hx9zLFZsDi_6muster3app7handlerNtB4_7Actions12resume_agent0B8_
FNDA:0,_RNCNvMNtNtCs5Hx9zLFZsDi_6muster3app7handlerNtB4_7Actions14update_preview0B8_
FNDA:0,_RNCNvMNtNtCs5Hx9zLFZsDi_6muster3app7handlerNtB4_7Actions14update_previews_0B8_
FNDA:1,_RNCNvMNtNtCs5Hx9zLFZsDi_6muster3app7handlerNtB4_7Actions15attach_to_agent0B8_
FNDA:1,_RNCNvMNtNtCs5Hx9zLFZsDi_6muster3app7handlerNtB4_7Actions19broadcast_to_leaves0B8_
FNDA:0,_RNCNvMNtNtCs5Hx9zLFZsDi_6muster3app7handlerNtB4_7Actions19broadcast_to_leavess0_0B8_
FNDA:0,_RNCNvMNtNtCs5Hx9zLFZsDi_6muster3app7handlerNtB4_7Actions19broadcast_to_leavess_0B8_
FNDA:1,_RNvMNtNtCs5Hx9zLFZsDi_6muster3app7handlerNtB2_7Actions10kill_agent
FNDA:3,_RNvMNtNtCs5Hx9zLFZsDi_6muster3app7handlerNtB2_7Actions10synthesize
FNDA:3,_RNvMNtNtCs5Hx9zLFZsDi_6muster3app7handlerNtB2_7Actions11pause_agent
FNDA:2,_RNvMNtNtCs5Hx9zLFZsDi_6muster3app7handlerNtB2_7Actions11push_branch
FNDA:3,_RNvMNtNtCs5Hx9zLFZsDi_6muster3app7handlerNtB2_7Actions11update_diff
FNDA:1,_RNvMNtNtCs5Hx9zLFZsDi_6muster3app7handlerNtB2_7Actions12create_agent
FNDA:3,_RNvMNtNtCs5Hx9zLFZsDi_6muster3app7handlerNtB2_7Actions12resume_agent
FNDA:34,_RNvMNtNtCs5Hx9zLFZsDi_6muster3app7handlerNtB2_7Actions13handle_action
FNDA:3,_RNvMNtNtCs5Hx9zLFZsDi_6muster3app7handlerNtB2_7Actions14handle_confirm
FNDA:2,_RNvMNtNtCs5Hx9zLFZsDi_6muster3app7handlerNtB2_7Actions14update_preview
FNDA:2,_RNvMNtNtCs5Hx9zLFZsDi_6muster3app7handlerNtB2_7Actions15attach_to_agent
FNDA:3,_RNvMNtNtCs5Hx9zLFZsDi_6muster3app7handlerNtB2_7Actions15toggle_collapse
FNDA:2,_RNvMNtNtCs5Hx9zLFZsDi_6muster3app7handlerNtB2_7Actions17sync_agent_status
FNDA:1,_RNvMNtNtCs5Hx9zLFZsDi_6muster3app7handlerNtB2_7Actions19broadcast_to_leaves
FNDA:3,_RNvMNtNtCs5Hx9zLFZsDi_6muster3app7handlerNtB2_7Actions20resize_agent_windows
FNDA:49,_RNvMNtNtCs5Hx9zLFZsDi_6muster3app7handlerNtB2_7Actions3new
FNDA:1,_RNvMNtNtCs5Hx9zLFZsDi_6muster3app7handlerNtB2_7Actions9reset_all
FNDA:47,_RNvNtNtNtCs5Hx9zLFZsDi_6muster3app7handler5tests15create_test_app
FNDA:1,_RNvNtNtNtCs5Hx9zLFZsDi_6muster3app7handler5testss_16test_handler_new
FNDA:1,_RNvNtNtNtCs5Hx9zLFZsDi_6muster3app7handler5testss_20test_handler_default
FNDA:1,_RNvNtNtNtCs5Hx9zLFZsDi_6muster3app7handler5testss_22test_sync_agent_status
FNDA:1,_RNvNtNtNtCs5Hx9zLFZsDi_6muster3app7handler5testss_23test_handle_action_help
FNDA:1,_RNvNtNtNtCs5Hx9zLFZsDi_6muster3app7handler5testss_24test_handle_confirm_kill
FNDA:1,_RNvNtNtNtCs5Hx9zLFZsDi_6muster3app7handler5testss_24test_handle_confirm_quit
FNDA:1,_RNvNtNtNtCs5Hx9zLFZsDi_6muster3app7handler5testss_24test_synthesize_no_agent
FNDA:1,_RNvNtNtNtCs5Hx9zLFZsDi_6muster3app7handler5testss_25test_handle_action_cancel
FNDA:1,_RNvNtNtNtCs5Hx9zLFZsDi_6muster3app7handler5testss_25test_handle_action_scroll
FNDA:1,_RNvNtNtNtCs5Hx9zLFZsDi_6muster3app7handler5testss_25test_handle_confirm_reset
FNDA:1,_RNvNtNtNtCs5Hx9zLFZsDi_6muster3app7handler5testss_25test_handle_kill_no_agent
FNDA:1,_RNvNtNtNtCs5Hx9zLFZsDi_6muster3app7handler5testss_25test_handle_push_no_agent
FNDA:1,_RNvNtNtNtCs5Hx9zLFZsDi_6muster3app7handler5testss_25test_handle_scroll_bottom
FNDA:1,_RNvNtNtNtCs5Hx9zLFZsDi_6muster3app7handler5testss_25test_update_diff_no_agent
FNDA:1,_RNvNtNtNtCs5Hx9zLFZsDi_6muster3app7handler5testss_26test_handle_pause_no_agent
FNDA:1,_RNvNtNtNtCs5Hx9zLFZsDi_6muster3app7handler5testss_27test_handle_attach_no_agent
FNDA:1,_RNvNtNtNtCs5Hx9zLFZsDi_6muster3app7handler5testss_27test_handle_kill_with_agent
FNDA:1,_RNvNtNtNtCs5Hx9zLFZsDi_6muster3app7handler5testss_27test_handle_push_with_agent
FNDA:1,_RNvNtNtNtCs5Hx9zLFZsDi_6muster3app7handler5testss_27test_handle_resume_no_agent
FNDA:1,_RNvNtNtNtCs5Hx9zLFZsDi_6muster3app7handler5testss_27test_synthesize_no_children
FNDA:1,_RNvNtNtNtCs5Hx9zLFZsDi_6muster3app7handler5testss_28test_handle_action_new_agent
FNDA:1,_RNvNtNtNtCs5Hx9zLFZsDi_6muster3app7handler5testss_28test_update_preview_no_agent
FNDA:1,_RNvNtNtNtCs5Hx9zLFZsDi_6muster3app7handler5testss_29test_create_agent_max_reached
FNDA:1,_RNvNtNtNtCs5Hx9zLFZsDi_6muster3app7handler5testss_29test_handle_action_navigation
FNDA:1,_RNvNtNtNtCs5Hx9zLFZsDi_6muster3app7handler5testss_29test_handle_action_switch_tab
FNDA:1,_RNvNtNtNtCs5Hx9zLFZsDi_6muster3app7handler5testss_29test_handle_action_synthesize
FNDA:1,_RNvNtNtNtCs5Hx9zLFZsDi_6muster3app7handler5testss_29test_toggle_collapse_no_agent
FNDA:1,_RNvNtNtNtCs5Hx9zLFZsDi_6muster3app7handler5testss_31test_handle_action_add_children
FNDA:1,_RNvNtNtNtCs5Hx9zLFZsDi_6muster3app7handler5testss_32test_toggle_collapse_no_children
FNDA:1,_RNvNtNtNtCs5Hx9zLFZsDi_6muster3app7handler5testss_33test_broadcast_to_leaves_no_agent
FNDA:1,_RNvNtNtNtCs5Hx9zLFZsDi_6muster3app7handler5testss_33test_handle_action_quit_no_agents
FNDA:1,_RNvNtNtNtCs5Hx9zLFZsDi_6muster3app7handler5testss_33test_handle_action_spawn_children
FNDA:1,_RNvNtNtNtCs5Hx9zLFZsDi_6muster3app7handler5testss_34test_handle_action_toggle_collapse
FNDA:1,_RNvNtNtNtCs5Hx9zLFZsDi_6muster3app7handler5testss_34test_sync_agent_status_with_agents
FNDA:1,_RNvNtNtNtCs5Hx9zLFZsDi_6muster3app7handler5testss_36test_handle_attach_session_not_found
FNDA:1,_RNvNtNtNtCs5Hx9zLFZsDi_6muster3app7handler5testss_36test_handle_pause_with_running_agent
FNDA:1,_RNvNtNtNtCs5Hx9zLFZsDi_6muster3app7handler5testss_36test_handle_pause_with_stopped_agent
FNDA:1,_RNvNtNtNtCs5Hx9zLFZsDi_6muster3app7handler5testss_36test_handle_quit_with_running_agents
FNDA:1,_RNvNtNtNtCs5Hx9zLFZsDi_6muster3app7handler5testss_36test_handle_resume_with_paused_agent
FNDA:1,_RNvNtNtNtCs5Hx9zLFZsDi_6muster3app7handler5testss_37test_handle_action_broadcast_no_agent
FNDA:1,_RNvNtNtNtCs5Hx9zLFZsDi_6muster3app7handler5testss_37test_handle_resume_with_running_agent
FNDA:1,_RNvNtNtNtCs5Hx9zLFZsDi_6muster3app7handler5testss_39test_handle_action_broadcast_with_agent
FNDA:1,_RNvNtNtNtCs5Hx9zLFZsDi_6muster3app7handler5testss_39test_resize_agent_windows_no_dimensions
FNDA:1,_RNvNtNtNtCs5Hx9zLFZsDi_6muster3app7handler5testss_39test_update_diff_with_agent_no_worktree
FNDA:1,_RNvNtNtNtCs5Hx9zLFZsDi_6muster3app7handler5testss_40test_handle_action_new_agent_with_prompt
FNDA:1,_RNvNtNtNtCs5Hx9zLFZsDi_6muster3app7handler5testss_41test_resize_agent_windows_with_dimensions
FNDA:1,_RNvNtNtNtCs5Hx9zLFZsDi_6muster3app7handler5testss_41test_update_preview_with_agent_no_session
FNDA:1,_RNvNtNtNtCs5Hx9zLFZsDi_6muster3app7handler5testss_42test_update_diff_with_agent_valid_worktree
FNDA:1,_RNvNtNtNtCs5Hx9zLFZsDi_6muster3app7handler5testss_43test_resize_agent_windows_with_child_agents
FNDA:1,_RNvXs_NtNtCs5Hx9zLFZsDi_6muster3app7handlerNtB4_7ActionsNtNtCs4Vq2ZLagKfv_4core7default7Default7default
FNDA:0,_RNCNvMNtNtCs5Hx9zLFZsDi_6muster3app7handlerNtB4_7Actions14spawn_children0B8_
FNDA:0,_RNvMNtNtCs5Hx9zLFZsDi_6muster3app7handlerNtB2_7Actions14spawn_children
FNF:83
FNH:73
DA:24,100
DA:25,100
DA:26,100
DA:27,100
DA:28,100
DA:29,100
DA:36,63
DA:37,63
DA:38,2
DA:39,2
DA:40,2
DA:41,2
DA:42,2
DA:43,2
DA:45,3
DA:48,2
DA:49,1
DA:50,1
DA:53,3
DA:56,5
DA:59,5
DA:61,2
DA:62,2
DA:63,2
DA:64,4
DA:65,4
DA:66,4
DA:67,4
DA:68,4
DA:69,4
DA:70,2
DA:71,2
DA:72,2
DA:74,3
DA:75,1
DA:76,2
DA:77,2
DA:78,2
DA:80,2
DA:81,2
DA:82,2
DA:83,2
DA:84,2
DA:85,2
DA:86,3
DA:87,3
DA:88,3
DA:89,3
DA:90,3
DA:91,3
DA:92,2
DA:93,2
DA:94,2
DA:96,8
DA:98,1
DA:99,1
DA:100,1
DA:102,1
DA:103,1
DA:104,1
DA:105,1
DA:108,1
DA:111,1
DA:114,2
DA:115,1
DA:116,1
DA:119,58
DA:120,63
DA:123,8
DA:124,8
DA:125,8
DA:127,3
DA:130,2
DA:132,3
DA:133,3
DA:134,3
DA:136,0
DA:137,8
DA:138,8
DA:139,8
DA:146,18
DA:147,18
DA:148,1
DA:149,1
DA:152,1
DA:153,17
DA:155,17
DA:156,17
DA:157,17
DA:158,17
DA:160,17
DA:163,17
DA:164,0
DA:165,17
DA:167,17
DA:169,17
DA:170,17
DA:171,17
DA:172,17
DA:173,17
DA:174,17
DA:177,17
DA:178,17
DA:179,2
DA:180,2
DA:181,15
DA:183,17
DA:184,17
DA:187,17
DA:188,1
DA:189,1
DA:190,1
DA:191,16
DA:193,17
DA:194,17
DA:196,17
DA:197,17
DA:198,18
DA:201,3
DA:202,3
DA:203,2
DA:204,2
DA:205,2
DA:206,2
DA:207,2
DA:209,2
DA:212,2
DA:213,2
DA:214,0
DA:215,0
DA:216,0
DA:220,2
DA:223,2
DA:224,2
DA:225,2
DA:226,2
DA:227,2
DA:231,0
DA:232,0
DA:235,0
DA:236,0
DA:237,0
DA:238,0
DA:239,0
DA:243,0
DA:244,0
DA:245,0
DA:249,2
DA:251,2
DA:252,2
DA:254,2
DA:255,1
DA:256,3
DA:257,3
DA:260,5
DA:261,5
DA:262,4
DA:263,3
DA:264,3
DA:265,3
DA:266,3
DA:267,1
DA:268,1
DA:269,1
DA:270,1
DA:271,5
DA:272,5
DA:275,5
DA:277,5
DA:278,4
DA:279,3
DA:280,3
DA:281,3
DA:282,3
DA:283,3
DA:285,1
DA:287,4
DA:289,5
DA:291,5
DA:292,3
DA:293,3
DA:296,3
DA:297,0
DA:298,3
DA:300,3
DA:301,3
DA:302,3
DA:303,3
DA:304,3
DA:305,2
DA:306,1
DA:307,1
DA:308,5
DA:309,5
DA:312,3
DA:313,3
DA:314,3
DA:315,3
DA:317,2
DA:318,0
DA:319,0
DA:321,2
DA:322,2
DA:324,3
DA:327,3
DA:328,3
DA:329,3
DA:330,3
DA:332,2
DA:333,2
DA:334,2
DA:335,3
DA:338,2
DA:339,2
DA:340,2
DA:342,5
DA:343,5
DA:345,5
DA:346,5
DA:347,5
DA:348,5
DA:351,2
DA:352,2
DA:353,2
DA:355,2
DA:356,2
DA:357,2
DA:364,3
DA:365,3
DA:367,2
DA:369,0
DA:370,0
DA:371,0
DA:372,0
DA:373,0
DA:376,2
DA:379,2
DA:380,0
DA:381,0
DA:382,0
DA:383,0
DA:384,0
DA:385,2
DA:386,2
DA:387,2
DA:388,1
DA:389,1
DA:390,1
DA:391,3
DA:392,3
DA:399,4
DA:400,4
DA:401,3
DA:402,2
DA:403,1
DA:404,1
DA:406,1
DA:407,1
DA:408,0
DA:409,0
DA:410,0
DA:412,1
DA:413,1
DA:414,1
DA:416,1
DA:417,1
DA:418,1
DA:419,1
DA:420,1
DA:421,1
DA:422,1
DA:423,1
DA:424,1
DA:425,1
DA:426,4
DA:427,4
DA:436,0
DA:437,0
DA:438,0
DA:441,0
DA:443,0
DA:444,0
DA:445,0
DA:446,0
DA:447,0
DA:448,0
DA:449,0
DA:450,0
DA:451,0
DA:452,0
DA:455,0
DA:456,0
DA:458,0
DA:460,0
DA:461,0
DA:462,0
DA:463,0
DA:465,0
DA:466,0
DA:468,0
DA:469,0
DA:470,0
DA:471,0
DA:472,0
DA:473,0
DA:476,0
DA:477,0
DA:480,0
DA:481,0
DA:482,0
DA:483,0
DA:484,0
DA:487,0
DA:488,0
DA:489,0
DA:490,0
DA:491,0
DA:493,0
DA:494,0
DA:498,0
DA:499,0
DA:500,0
DA:503,0
DA:505,0
DA:506,0
DA:507,0
DA:508,0
DA:509,0
DA:510,0
DA:511,0
DA:512,0
DA:513,0
DA:514,0
DA:515,0
DA:519,0
DA:520,0
DA:522,0
DA:524,0
DA:525,0
DA:526,0
DA:527,0
DA:528,0
DA:529,0
DA:532,0
DA:533,0
DA:534,0
DA:535,0
DA:536,0
DA:537,0
DA:540,0
DA:541,0
DA:543,0
DA:547,0
DA:548,0
DA:549,0
DA:551,0
DA:552,0
DA:553,0
DA:554,0
DA:561,3
DA:562,3
DA:563,3
DA:564,3
DA:566,1
DA:567,1
DA:568,1
DA:569,0
DA:571,0
DA:572,0
DA:575,0
DA:576,0
DA:578,0
DA:580,0
DA:581,0
DA:582,0
DA:585,0
DA:586,0
DA:587,0
DA:588,0
DA:590,0
DA:594,0
DA:597,0
DA:598,0
DA:601,0
DA:602,0
DA:604,0
DA:605,0
DA:606,0
DA:607,0
DA:608,0
DA:609,0
DA:610,0
DA:612,0
DA:615,0
DA:616,0
DA:617,0
DA:618,0
DA:619,3
DA:626,3
DA:627,3
DA:628,1
DA:629,1
DA:630,0
DA:632,0
DA:633,0
DA:634,1
DA:635,2
DA:636,3
DA:637,3
DA:647,2
DA:648,2
DA:649,2
DA:650,2
DA:652,0
DA:653,0
DA:656,0
DA:657,0
DA:660,0
DA:661,0
DA:662,0
DA:665,0
DA:667,0
DA:668,0
DA:669,0
DA:670,0
DA:672,0
DA:675,0
DA:679,0
DA:680,0
DA:681,0
DA:682,0
DA:683,0
DA:684,0
DA:685,0
DA:686,0
DA:689,0
DA:690,0
DA:691,0
DA:692,0
DA:693,0
DA:695,0
DA:696,2
DA:701,4
DA:702,4
DA:703,1
DA:706,4
DA:707,4
DA:709,3
DA:710,0
DA:711,0
DA:712,0
DA:713,3
DA:714,1
DA:716,1
DA:717,1
DA:718,1
DA:719,0
DA:720,0
DA:721,0
DA:722,0
DA:723,0
DA:724,0
DA:725,1
DA:726,0
DA:728,4
DA:735,4
DA:736,4
DA:738,5
DA:739,5
DA:740,3
DA:741,0
DA:742,0
DA:743,0
DA:744,0
DA:745,3
DA:746,3
DA:747,3
DA:748,3
DA:749,2
DA:752,4
DA:753,2
DA:754,2
DA:756,4
DA:757,4
DA:761,1
DA:762,1
DA:763,1
DA:772,47
DA:773,47
DA:774,47
DA:777,1
DA:778,1
DA:779,1
DA:780,1
DA:783,1
DA:784,1
DA:785,1
DA:786,1
DA:789,1
DA:790,1
DA:791,1
DA:793,1
DA:794,1
DA:795,1
DA:796,1
DA:799,1
DA:800,1
DA:801,1
DA:803,1
DA:804,1
DA:805,1
DA:806,1
DA:809,1
DA:810,1
DA:811,1
DA:813,1
DA:814,1
DA:815,1
DA:816,1
DA:819,1
DA:820,1
DA:821,1
DA:823,1
DA:824,1
DA:825,1
DA:826,1
DA:829,1
DA:830,1
DA:831,1
DA:833,1
DA:834,1
DA:835,1
DA:836,1
DA:839,1
DA:843,1
DA:844,1
DA:846,4
DA:847,3
DA:848,3
DA:849,3
DA:850,3
DA:851,3
DA:852,3
DA:853,3
DA:854,3
DA:856,1
DA:857,1
DA:858,1
DA:859,1
DA:860,1
DA:861,1
DA:862,1
DA:865,1
DA:866,1
DA:867,1
DA:869,1
DA:870,1
DA:872,1
DA:873,1
DA:875,1
DA:876,1
DA:877,1
DA:878,1
DA:881,1
DA:882,1
DA:883,1
DA:885,1
DA:886,1
DA:887,1
DA:888,1
DA:889,1
DA:892,1
DA:893,1
DA:894,1
DA:896,1
DA:897,1
DA:898,1
DA:899,1
DA:902,1
DA:903,1
DA:904,1
DA:906,1
DA:907,1
DA:908,1
DA:909,1
DA:912,1
DA:913,1
DA:914,1
DA:916,1
DA:917,1
DA:918,1
DA:919,1
DA:922,1
DA:923,1
DA:924,1
DA:926,1
DA:927,1
DA:928,1
DA:931,1
DA:932,1
DA:933,1
DA:935,1
DA:936,1
DA:937,1
DA:938,1
DA:941,1
DA:942,1
DA:943,1
DA:945,1
DA:946,1
DA:947,1
DA:948,1
DA:951,1
DA:952,1
DA:953,1
DA:955,1
DA:956,1
DA:957,1
DA:960,1
DA:961,1
DA:962,1
DA:964,1
DA:965,1
DA:966,1
DA:969,1
DA:973,1
DA:974,1
DA:977,1
DA:978,1
DA:979,1
DA:980,1
DA:981,1
DA:982,1
DA:984,1
DA:985,1
DA:988,1
DA:989,1
DA:990,1
DA:991,1
DA:994,1
DA:998,1
DA:999,1
DA:1002,1
DA:1003,1
DA:1004,1
DA:1005,1
DA:1006,1
DA:1007,1
DA:1011,1
DA:1012,1
DA:1013,1
DA:1014,1
DA:1017,1
DA:1018,1
DA:1019,1
DA:1022,1
DA:1024,1
DA:1025,1
DA:1026,1
DA:1027,1
DA:1028,1
DA:1031,1
DA:1035,1
DA:1036,1
DA:1039,1
DA:1040,1
DA:1041,1
DA:1042,1
DA:1043,1
DA:1044,1
DA:1048,1
DA:1051,1
DA:1052,1
DA:1053,1
DA:1054,1
DA:1057,1
DA:1061,1
DA:1062,1
DA:1065,4
DA:1066,3
DA:1067,3
DA:1068,3
DA:1069,3
DA:1070,3
DA:1071,3
DA:1072,3
DA:1073,3
DA:1076,1
DA:1078,1
DA:1079,1
DA:1080,1
DA:1081,1
DA:1082,1
DA:1085,1
DA:1089,1
DA:1090,1
DA:1093,1
DA:1094,1
DA:1095,1
DA:1096,1
DA:1097,1
DA:1098,1
DA:1100,1
DA:1101,1
DA:1104,1
DA:1106,1
DA:1107,1
DA:1108,1
DA:1111,1
DA:1115,1
DA:1116,1
DA:1119,1
DA:1120,1
DA:1121,1
DA:1122,1
DA:1123,1
DA:1124,1
DA:1126,1
DA:1127,1
DA:1130,1
DA:1131,1
DA:1132,1
DA:1133,1
DA:1136,1
DA:1140,1
DA:1141,1
DA:1144,1
DA:1145,1
DA:1146,1
DA:1147,1
DA:1148,1
DA:1149,1
DA:1151,1
DA:1152,1
DA:1155,1
DA:1156,1
DA:1159,1
DA:1163,1
DA:1164,1
DA:1167,1
DA:1168,1
DA:1169,1
DA:1170,1
DA:1171,1
DA:1172,1
DA:1174,1
DA:1175,1
DA:1178,1
DA:1179,1
DA:1180,1
DA:1181,1
DA:1184,1
DA:1188,1
DA:1189,1
DA:1192,1
DA:1193,1
DA:1194,1
DA:1195,1
DA:1196,1
DA:1197,1
DA:1201,1
DA:1202,1
DA:1203,1
DA:1206,1
DA:1210,1
DA:1211,1
DA:1214,1
DA:1215,1
DA:1216,1
DA:1217,1
DA:1218,1
DA:1219,1
DA:1222,1
DA:1223,1
DA:1224,1
DA:1225,1
DA:1228,1
DA:1232,1
DA:1233,1
DA:1236,1
DA:1237,1
DA:1238,1
DA:1239,1
DA:1240,1
DA:1241,1
DA:1244,1
DA:1245,1
DA:1246,1
DA:1247,1
DA:1250,1
DA:1254,1
DA:1255,1
DA:1258,1
DA:1261,1
DA:1262,1
DA:1263,1
DA:1264,1
DA:1265,1
DA:1266,1
DA:1269,1
DA:1270,1
DA:1271,1
DA:1272,1
DA:1275,1
DA:1279,1
DA:1280,1
DA:1283,1
DA:1284,1
DA:1285,1
DA:1286,1
DA:1287,1
DA:1288,1
DA:1290,1
DA:1291,1
DA:1293,1
DA:1294,1
DA:1295,1
DA:1296,1
DA:1297,1
DA:1298,1
DA:1300,1
DA:1301,1
DA:1303,1
DA:1304,1
DA:1305,1
DA:1306,1
DA:1307,1
DA:1308,1
DA:1310,1
DA:1311,1
DA:1314,1
DA:1317,3
DA:1318,3
DA:1319,2
DA:1320,1
DA:1322,1
DA:1323,1
DA:1326,1
DA:1327,1
DA:1328,1
DA:1330,1
DA:1332,1
DA:1333,1
DA:1334,1
DA:1337,1
DA:1341,1
DA:1342,1
DA:1343,1
DA:1346,3
DA:1347,2
DA:1348,2
DA:1349,2
DA:1350,2
DA:1351,2
DA:1352,2
DA:1353,2
DA:1354,2
DA:1357,1
DA:1358,1
DA:1359,1
DA:1360,1
DA:1363,1
DA:1367,1
DA:1368,1
DA:1371,1
DA:1372,1
DA:1373,1
DA:1374,1
DA:1375,1
DA:1376,1
DA:1380,1
DA:1381,1
DA:1382,1
DA:1383,1
DA:1386,1
DA:1387,1
DA:1388,1
DA:1391,1
DA:1392,1
DA:1393,1
DA:1396,1
DA:1400,1
DA:1401,1
DA:1403,1
DA:1404,1
DA:1405,1
DA:1406,1
DA:1407,1
DA:1408,1
DA:1412,1
DA:1413,1
DA:1414,1
DA:1417,1
DA:1418,1
DA:1419,1
DA:1422,1
DA:1423,1
DA:1424,1
DA:1427,1
DA:1431,1
DA:1432,1
DA:1434,1
DA:1435,1
DA:1436,1
DA:1437,1
DA:1438,1
DA:1439,1
DA:1443,1
DA:1444,1
DA:1445,1
DA:1446,1
DA:1447,1
DA:1448,1
DA:1449,1
DA:1451,1
DA:1452,1
DA:1455,1
DA:1456,1
DA:1457,1
DA:1459,1
DA:1460,1
DA:1461,1
DA:1462,1
DA:1463,1
DA:1466,1
DA:1470,1
DA:1471,1
DA:1473,1
DA:1474,1
DA:1475,1
DA:1476,1
DA:1477,1
DA:1478,1
DA:1480,1
DA:1481,1
DA:1483,1
DA:1484,1
DA:1485,1
DA:1486,1
DA:1487,1
DA:1490,1
DA:1491,1
DA:1492,1
DA:1495,1
DA:1496,1
DA:1497,1
DA:1500,1
DA:1501,1
DA:1502,1
DA:1505,1
DA:1506,1
DA:1507,1
DA:1510,1
DA:1511,1
DA:1512,1
DA:1515,1
DA:1516,1
DA:1517,1
DA:1518,1
DA:1521,1
DA:1525,1
DA:1526,1
DA:1528,1
DA:1529,1
DA:1530,1
DA:1531,1
DA:1532,1
DA:1533,1
DA:1536,1
DA:1537,1
DA:1538,1
DA:1539,1
DA:1542,1
DA:1543,1
DA:1544,1
DA:1547,1
DA:1548,1
DA:1549,1
DA:1552,1
DA:1553,1
DA:1554,1
DA:1557,1
DA:1558,1
DA:1559,1
DA:1562,1
DA:1566,1
DA:1567,1
DA:1570,1
DA:1573,1
DA:1574,1
DA:1575,1
DA:1576,1
DA:1577,1
DA:1578,1
DA:1582,1
DA:1583,1
DA:1584,1
DA:1587,1
DA:1591,1
DA:1592,1
DA:1595,1
DA:1598,1
DA:1599,1
DA:1600,1
DA:1601,1
DA:1602,1
DA:1603,1
DA:1605,1
DA:1606,1
DA:1607,1
DA:1610,1
DA:1611,1
DA:1612,1
DA:1613,1
DA:1614,1
DA:1615,1
DA:1616,1
DA:1617,1
DA:1618,1
DA:1619,1
DA:1620,1
DA:1624,1
DA:1625,1
BRF:0
BRH:0
LF:1033
LH:827
end_of_record
SF:/home/quinten/Documents/Software_Development/muster/src/app/state.rs
FN:217,_RINvMNtNtCs3bOdyUEi4qt_6muster3app5stateNtB3_3App10set_statusNtNtCs456UZznmu7y_5alloc6string6StringEB7_
FN:217,_RINvMNtNtCs3bOdyUEi4qt_6muster3app5stateNtB3_3App10set_statusReEB7_
FN:197,_RINvMNtNtCs3bOdyUEi4qt_6muster3app5stateNtB3_3App9set_errorNtNtCs456UZznmu7y_5alloc6string6StringEB7_
FN:197,_RINvMNtNtCs3bOdyUEi4qt_6muster3app5stateNtB3_3App9set_errorReEB7_
FN:351,_RNCNvMNtNtCs3bOdyUEi4qt_6muster3app5stateNtB4_3App14selected_depth0B8_
FN:245,_RNCNvMNtNtCs3bOdyUEi4qt_6muster3app5stateNtB4_3App18has_running_agents0B8_
FN:253,_RNCNvMNtNtCs3bOdyUEi4qt_6muster3app5stateNtB4_3App19running_agent_count0B8_
FN:339,_RNCNvMNtNtCs3bOdyUEi4qt_6muster3app5stateNtB4_3App21selected_has_children0B8_
FN:175,_RNvMNtNtCs3bOdyUEi4qt_6muster3app5stateNtB2_3App10enter_mode
FN:119,_RNvMNtNtCs3bOdyUEi4qt_6muster3app5stateNtB2_3App10switch_tab
FN:204,_RNvMNtNtCs3bOdyUEi4qt_6muster3app5stateNtB2_3App11clear_error
FN:258,_RNvMNtNtCs3bOdyUEi4qt_6muster3app5stateNtB2_3App11handle_char
FN:146,_RNvMNtNtCs3bOdyUEi4qt_6muster3app5stateNtB2_3App11scroll_down
FN:101,_RNvMNtNtCs3bOdyUEi4qt_6muster3app5stateNtB2_3App11select_next
FN:110,_RNvMNtNtCs3bOdyUEi4qt_6muster3app5stateNtB2_3App11select_prev
FN:222,_RNvMNtNtCs3bOdyUEi4qt_6muster3app5stateNtB2_3App12clear_status
FN:128,_RNvMNtNtCs3bOdyUEi4qt_6muster3app5stateNtB2_3App12reset_scroll
FN:209,_RNvMNtNtCs3bOdyUEi4qt_6muster3app5stateNtB2_3App13dismiss_error
FN:158,_RNvMNtNtCs3bOdyUEi4qt_6muster3app5stateNtB2_3App13scroll_to_top
FN:227,_RNvMNtNtCs3bOdyUEi4qt_6muster3app5stateNtB2_3App14request_attach
FN:89,_RNvMNtNtCs3bOdyUEi4qt_6muster3app5stateNtB2_3App14selected_agent
FN:349,_RNvMNtNtCs3bOdyUEi4qt_6muster3app5stateNtB2_3App14selected_depth
FN:272,_RNvMNtNtCs3bOdyUEi4qt_6muster3app5stateNtB2_3App16handle_backspace
FN:166,_RNvMNtNtCs3bOdyUEi4qt_6muster3app5stateNtB2_3App16scroll_to_bottom
FN:238,_RNvMNtNtCs3bOdyUEi4qt_6muster3app5stateNtB2_3App18has_attach_request
FN:244,_RNvMNtNtCs3bOdyUEi4qt_6muster3app5stateNtB2_3App18has_running_agents
FN:94,_RNvMNtNtCs3bOdyUEi4qt_6muster3app5stateNtB2_3App18selected_agent_mut
FN:286,_RNvMNtNtCs3bOdyUEi4qt_6muster3app5stateNtB2_3App18validate_selection
FN:250,_RNvMNtNtCs3bOdyUEi4qt_6muster3app5stateNtB2_3App19running_agent_count
FN:317,_RNvMNtNtCs3bOdyUEi4qt_6muster3app5stateNtB2_3App19start_spawning_root
FN:232,_RNvMNtNtCs3bOdyUEi4qt_6muster3app5stateNtB2_3App20clear_attach_request
FN:310,_RNvMNtNtCs3bOdyUEi4qt_6muster3app5stateNtB2_3App20start_spawning_under
FN:303,_RNvMNtNtCs3bOdyUEi4qt_6muster3app5stateNtB2_3App21decrement_child_count
FN:298,_RNvMNtNtCs3bOdyUEi4qt_6muster3app5stateNtB2_3App21increment_child_count
FN:337,_RNvMNtNtCs3bOdyUEi4qt_6muster3app5stateNtB2_3App21selected_has_children
FN:343,_RNvMNtNtCs3bOdyUEi4qt_6muster3app5stateNtB2_3App22set_preview_dimensions
FN:324,_RNvMNtNtCs3bOdyUEi4qt_6muster3app5stateNtB2_3App23proceed_to_child_prompt
FN:329,_RNvMNtNtCs3bOdyUEi4qt_6muster3app5stateNtB2_3App24toggle_selected_collapse
FN:65,_RNvMNtNtCs3bOdyUEi4qt_6muster3app5stateNtB2_3App3new
FN:191,_RNvMNtNtCs3bOdyUEi4qt_6muster3app5stateNtB2_3App9exit_mode
FN:134,_RNvMNtNtCs3bOdyUEi4qt_6muster3app5stateNtB2_3App9scroll_up
FN:419,_RNvXs0_NtNtCs3bOdyUEi4qt_6muster3app5stateNtB5_3TabNtNtCs4Vq2ZLagKfv_4core3fmt7Display3fmt
FN:356,_RNvXs_NtNtCs3bOdyUEi4qt_6muster3app5stateNtB4_3AppNtNtCs4Vq2ZLagKfv_4core7default7Default7default
FN:217,_RINvMNtNtCs5Hx9zLFZsDi_6muster3app5stateNtB3_3App10set_statusNtNtCs456UZznmu7y_5alloc6string6StringEB7_
FN:217,_RINvMNtNtCs5Hx9zLFZsDi_6muster3app5stateNtB3_3App10set_statusReEB7_
FN:197,_RINvMNtNtCs5Hx9zLFZsDi_6muster3app5stateNtB3_3App9set_errorNtNtCs456UZznmu7y_5alloc6string6StringEB7_
FN:197,_RINvMNtNtCs5Hx9zLFZsDi_6muster3app5stateNtB3_3App9set_errorReEB7_
FN:351,_RNCNvMNtNtCs5Hx9zLFZsDi_6muster3app5stateNtB4_3App14selected_depth0B8_
FN:245,_RNCNvMNtNtCs5Hx9zLFZsDi_6muster3app5stateNtB4_3App18has_running_agents0B8_
FN:253,_RNCNvMNtNtCs5Hx9zLFZsDi_6muster3app5stateNtB4_3App19running_agent_count0B8_
FN:339,_RNCNvMNtNtCs5Hx9zLFZsDi_6muster3app5stateNtB4_3App21selected_has_children0B8_
FN:175,_RNvMNtNtCs5Hx9zLFZsDi_6muster3app5stateNtB2_3App10enter_mode
FN:119,_RNvMNtNtCs5Hx9zLFZsDi_6muster3app5stateNtB2_3App10switch_tab
FN:204,_RNvMNtNtCs5Hx9zLFZsDi_6muster3app5stateNtB2_3App11clear_error
FN:258,_RNvMNtNtCs5Hx9zLFZsDi_6muster3app5stateNtB2_3App11handle_char
FN:146,_RNvMNtNtCs5Hx9zLFZsDi_6muster3app5stateNtB2_3App11scroll_down
FN:101,_RNvMNtNtCs5Hx9zLFZsDi_6muster3app5stateNtB2_3App11select_next
FN:110,_RNvMNtNtCs5Hx9zLFZsDi_6muster3app5stateNtB2_3App11select_prev
FN:222,_RNvMNtNtCs5Hx9zLFZsDi_6muster3app5stateNtB2_3App12clear_status
FN:128,_RNvMNtNtCs5Hx9zLFZsDi_6muster3app5stateNtB2_3App12reset_scroll
FN:158,_RNvMNtNtCs5Hx9zLFZsDi_6muster3app5stateNtB2_3App13scroll_to_top
FN:227,_RNvMNtNtCs5Hx9zLFZsDi_6muster3app5stateNtB2_3App14request_attach
FN:89,_RNvMNtNtCs5Hx9zLFZsDi_6muster3app5stateNtB2_3App14selected_agent
FN:349,_RNvMNtNtCs5Hx9zLFZsDi_6muster3app5stateNtB2_3App14selected_depth
FN:272,_RNvMNtNtCs5Hx9zLFZsDi_6muster3app5stateNtB2_3App16handle_backspace
FN:166,_RNvMNtNtCs5Hx9zLFZsDi_6muster3app5stateNtB2_3App16scroll_to_bottom
FN:244,_RNvMNtNtCs5Hx9zLFZsDi_6muster3app5stateNtB2_3App18has_running_agents
FN:94,_RNvMNtNtCs5Hx9zLFZsDi_6muster3app5stateNtB2_3App18selected_agent_mut
FN:286,_RNvMNtNtCs5Hx9zLFZsDi_6muster3app5stateNtB2_3App18validate_selection
FN:250,_RNvMNtNtCs5Hx9zLFZsDi_6muster3app5stateNtB2_3App19running_agent_count
FN:317,_RNvMNtNtCs5Hx9zLFZsDi_6muster3app5stateNtB2_3App19start_spawning_root
FN:310,_RNvMNtNtCs5Hx9zLFZsDi_6muster3app5stateNtB2_3App20start_spawning_under
FN:303,_RNvMNtNtCs5Hx9zLFZsDi_6muster3app5stateNtB2_3App21decrement_child_count
FN:298,_RNvMNtNtCs5Hx9zLFZsDi_6muster3app5stateNtB2_3App21increment_child_count
FN:337,_RNvMNtNtCs5Hx9zLFZsDi_6muster3app5stateNtB2_3App21selected_has_children
FN:343,_RNvMNtNtCs5Hx9zLFZsDi_6muster3app5stateNtB2_3App22set_preview_dimensions
FN:324,_RNvMNtNtCs5Hx9zLFZsDi_6muster3app5stateNtB2_3App23proceed_to_child_prompt
FN:329,_RNvMNtNtCs5Hx9zLFZsDi_6muster3app5stateNtB2_3App24toggle_selected_collapse
FN:65,_RNvMNtNtCs5Hx9zLFZsDi_6muster3app5stateNtB2_3App3new
FN:191,_RNvMNtNtCs5Hx9zLFZsDi_6muster3app5stateNtB2_3App9exit_mode
FN:134,_RNvMNtNtCs5Hx9zLFZsDi_6muster3app5stateNtB2_3App9scroll_up
FN:433,_RNvNtNtNtCs5Hx9zLFZsDi_6muster3app5state5tests17create_test_agent
FN:504,_RNvNtNtNtCs5Hx9zLFZsDi_6muster3app5state5testss_11test_scroll
FN:444,_RNvNtNtNtCs5Hx9zLFZsDi_6muster3app5state5testss_12test_app_new
FN:675,_RNvNtNtNtCs5Hx9zLFZsDi_6muster3app5state5testss_14test_tab_serde
FN:492,_RNvNtNtNtCs5Hx9zLFZsDi_6muster3app5state5testss_15test_switch_tab
FN:602,_RNvNtNtNtCs5Hx9zLFZsDi_6muster3app5state5testss_16test_handle_char
FN:453,_RNvNtNtNtCs5Hx9zLFZsDi_6muster3app5state5testss_16test_select_next
FN:469,_RNvNtNtNtCs5Hx9zLFZsDi_6muster3app5state5testss_16test_select_prev
FN:659,_RNvNtNtNtCs5Hx9zLFZsDi_6muster3app5state5testss_16test_tab_display
FN:690,_RNvNtNtNtCs5Hx9zLFZsDi_6muster3app5state5testss_17test_reset_scroll
FN:522,_RNvNtNtNtCs5Hx9zLFZsDi_6muster3app5state5testss_18test_scroll_to_top
FN:553,_RNvNtNtNtCs5Hx9zLFZsDi_6muster3app5state5testss_19test_error_handling
FN:575,_RNvNtNtNtCs5Hx9zLFZsDi_6muster3app5state5testss_19test_selected_agent
FN:769,_RNvNtNtNtCs5Hx9zLFZsDi_6muster3app5state5testss_19test_selected_depth
FN:539,_RNvNtNtNtCs5Hx9zLFZsDi_6muster3app5state5testss_20test_enter_exit_mode
FN:564,_RNvNtNtNtCs5Hx9zLFZsDi_6muster3app5state5testss_20test_status_handling
FN:665,_RNvNtNtNtCs5Hx9zLFZsDi_6muster3app5state5testss_21test_app_mode_default
FN:617,_RNvNtNtNtCs5Hx9zLFZsDi_6muster3app5state5testss_21test_handle_backspace
FN:532,_RNvNtNtNtCs5Hx9zLFZsDi_6muster3app5state5testss_21test_scroll_to_bottom
FN:670,_RNvNtNtNtCs5Hx9zLFZsDi_6muster3app5state5testss_23test_input_mode_default
FN:586,_RNvNtNtNtCs5Hx9zLFZsDi_6muster3app5state5testss_23test_selected_agent_mut
FN:649,_RNvNtNtNtCs5Hx9zLFZsDi_6muster3app5state5testss_23test_validate_selection
FN:635,_RNvNtNtNtCs5Hx9zLFZsDi_6muster3app5state5testss_24test_running_agent_count
FN:732,_RNvNtNtNtCs5Hx9zLFZsDi_6muster3app5state5testss_24test_start_spawning_root
FN:483,_RNvNtNtNtCs5Hx9zLFZsDi_6muster3app5state5testss_25test_select_empty_storage
FN:722,_RNvNtNtNtCs5Hx9zLFZsDi_6muster3app5state5testss_25test_start_spawning_under
FN:712,_RNvNtNtNtCs5Hx9zLFZsDi_6muster3app5state5testss_26test_decrement_child_count
FN:704,_RNvNtNtNtCs5Hx9zLFZsDi_6muster3app5state5testss_26test_increment_child_count
FN:763,_RNvNtNtNtCs5Hx9zLFZsDi_6muster3app5state5testss_26test_selected_has_children
FN:775,_RNvNtNtNtCs5Hx9zLFZsDi_6muster3app5state5testss_27test_set_preview_dimensions
FN:684,_RNvNtNtNtCs5Hx9zLFZsDi_6muster3app5state5testss_28test_confirm_action_equality
FN:741,_RNvNtNtNtCs5Hx9zLFZsDi_6muster3app5state5testss_28test_proceed_to_child_prompt
FN:748,_RNvNtNtNtCs5Hx9zLFZsDi_6muster3app5state5testss_29test_toggle_selected_collapse
FN:419,_RNvXs0_NtNtCs5Hx9zLFZsDi_6muster3app5stateNtB5_3TabNtNtCs4Vq2ZLagKfv_4core3fmt7Display3fmt
FN:356,_RNvXs_NtNtCs5Hx9zLFZsDi_6muster3app5stateNtB4_3AppNtNtCs4Vq2ZLagKfv_4core7default7Default7default
FN:209,_RNvMNtNtCs5Hx9zLFZsDi_6muster3app5stateNtB2_3App13dismiss_error
FN:238,_RNvMNtNtCs5Hx9zLFZsDi_6muster3app5stateNtB2_3App18has_attach_request
FN:232,_RNvMNtNtCs5Hx9zLFZsDi_6muster3app5stateNtB2_3App20clear_attach_request
FNDA:18,_RINvMNtNtCs3bOdyUEi4qt_6muster3app5stateNtB3_3App10set_statusNtNtCs456UZznmu7y_5alloc6string6StringEB7_
FNDA:7,_RINvMNtNtCs3bOdyUEi4qt_6muster3app5stateNtB3_3App10set_statusReEB7_
FNDA:1,_RINvMNtNtCs3bOdyUEi4qt_6muster3app5stateNtB3_3App9set_errorNtNtCs456UZznmu7y_5alloc6string6StringEB7_
FNDA:7,_RINvMNtNtCs3bOdyUEi4qt_6muster3app5stateNtB3_3App9set_errorReEB7_
FNDA:0,_RNCNvMNtNtCs3bOdyUEi4qt_6muster3app5stateNtB4_3App14selected_depth0B8_
FNDA:0,_RNCNvMNtNtCs3bOdyUEi4qt_6muster3app5stateNtB4_3App18has_running_agents0B8_
FNDA:102,_RNCNvMNtNtCs3bOdyUEi4qt_6muster3app5stateNtB4_3App19running_agent_count0B8_
FNDA:0,_RNCNvMNtNtCs3bOdyUEi4qt_6muster3app5stateNtB4_3App21selected_has_children0B8_
FNDA:41,_RNvMNtNtCs3bOdyUEi4qt_6muster3app5stateNtB2_3App10enter_mode
FNDA:4,_RNvMNtNtCs3bOdyUEi4qt_6muster3app5stateNtB2_3App10switch_tab
FNDA:0,_RNvMNtNtCs3bOdyUEi4qt_6muster3app5stateNtB2_3App11clear_error
FNDA:44,_RNvMNtNtCs3bOdyUEi4qt_6muster3app5stateNtB2_3App11handle_char
FNDA:1,_RNvMNtNtCs3bOdyUEi4qt_6muster3app5stateNtB2_3App11scroll_down
FNDA:13,_RNvMNtNtCs3bOdyUEi4qt_6muster3app5stateNtB2_3App11select_next
FNDA:3,_RNvMNtNtCs3bOdyUEi4qt_6muster3app5stateNtB2_3App11select_prev
FNDA:0,_RNvMNtNtCs3bOdyUEi4qt_6muster3app5stateNtB2_3App12clear_status
FNDA:14,_RNvMNtNtCs3bOdyUEi4qt_6muster3app5stateNtB2_3App12reset_scroll
FNDA:2,_RNvMNtNtCs3bOdyUEi4qt_6muster3app5stateNtB2_3App13dismiss_error
FNDA:2,_RNvMNtNtCs3bOdyUEi4qt_6muster3app5stateNtB2_3App13scroll_to_top
FNDA:0,_RNvMNtNtCs3bOdyUEi4qt_6muster3app5stateNtB2_3App14request_attach
FNDA:13,_RNvMNtNtCs3bOdyUEi4qt_6muster3app5stateNtB2_3App14selected_agent
FNDA:0,_RNvMNtNtCs3bOdyUEi4qt_6muster3app5stateNtB2_3App14selected_depth
FNDA:2,_RNvMNtNtCs3bOdyUEi4qt_6muster3app5stateNtB2_3App16handle_backspace
FNDA:2,_RNvMNtNtCs3bOdyUEi4qt_6muster3app5stateNtB2_3App16scroll_to_bottom
FNDA:0,_RNvMNtNtCs3bOdyUEi4qt_6muster3app5stateNtB2_3App18has_attach_request
FNDA:1,_RNvMNtNtCs3bOdyUEi4qt_6muster3app5stateNtB2_3App18has_running_agents
FNDA:5,_RNvMNtNtCs3bOdyUEi4qt_6muster3app5stateNtB2_3App18selected_agent_mut
FNDA:2,_RNvMNtNtCs3bOdyUEi4qt_6muster3app5stateNtB2_3App18validate_selection
FNDA:28,_RNvMNtNtCs3bOdyUEi4qt_6muster3app5stateNtB2_3App19running_agent_count
FNDA:0,_RNvMNtNtCs3bOdyUEi4qt_6muster3app5stateNtB2_3App19start_spawning_root
FNDA:0,_RNvMNtNtCs3bOdyUEi4qt_6muster3app5stateNtB2_3App20clear_attach_request
FNDA:0,_RNvMNtNtCs3bOdyUEi4qt_6muster3app5stateNtB2_3App20start_spawning_under
FNDA:0,_RNvMNtNtCs3bOdyUEi4qt_6muster3app5stateNtB2_3App21decrement_child_count
FNDA:0,_RNvMNtNtCs3bOdyUEi4qt_6muster3app5stateNtB2_3App21increment_child_count
FNDA:0,_RNvMNtNtCs3bOdyUEi4qt_6muster3app5stateNtB2_3App21selected_has_children
FNDA:2,_RNvMNtNtCs3bOdyUEi4qt_6muster3app5stateNtB2_3App22set_preview_dimensions
FNDA:0,_RNvMNtNtCs3bOdyUEi4qt_6muster3app5stateNtB2_3App23proceed_to_child_prompt
FNDA:0,_RNvMNtNtCs3bOdyUEi4qt_6muster3app5stateNtB2_3App24toggle_selected_collapse
FNDA:84,_RNvMNtNtCs3bOdyUEi4qt_6muster3app5stateNtB2_3App3new
FNDA:18,_RNvMNtNtCs3bOdyUEi4qt_6muster3app5stateNtB2_3App9exit_mode
FNDA:1,_RNvMNtNtCs3bOdyUEi4qt_6muster3app5stateNtB2_3App9scroll_up
FNDA:0,_RNvXs0_NtNtCs3bOdyUEi4qt_6muster3app5stateNtB5_3TabNtNtCs4Vq2ZLagKfv_4core3fmt7Display3fmt
FNDA:0,_RNvXs_NtNtCs3bOdyUEi4qt_6muster3app5stateNtB4_3AppNtNtCs4Vq2ZLagKfv_4core7default7Default7default
FNDA:1,_RINvMNtNtCs5Hx9zLFZsDi_6muster3app5stateNtB3_3App10set_statusNtNtCs456UZznmu7y_5alloc6string6StringEB7_
FNDA:5,_RINvMNtNtCs5Hx9zLFZsDi_6muster3app5stateNtB3_3App10set_statusReEB7_
FNDA:1,_RINvMNtNtCs5Hx9zLFZsDi_6muster3app5stateNtB3_3App9set_errorNtNtCs456UZznmu7y_5alloc6string6StringEB7_
FNDA:5,_RINvMNtNtCs5Hx9zLFZsDi_6muster3app5stateNtB3_3App9set_errorReEB7_
FNDA:0,_RNCNvMNtNtCs5Hx9zLFZsDi_6muster3app5stateNtB4_3App14selected_depth0B8_
FNDA:2,_RNCNvMNtNtCs5Hx9zLFZsDi_6muster3app5stateNtB4_3App18has_running_agents0B8_
FNDA:1,_RNCNvMNtNtCs5Hx9zLFZsDi_6muster3app5stateNtB4_3App19running_agent_count0B8_
FNDA:0,_RNCNvMNtNtCs5Hx9zLFZsDi_6muster3app5stateNtB4_3App21selected_has_children0B8_
FNDA:18,_RNvMNtNtCs5Hx9zLFZsDi_6muster3app5stateNtB2_3App10enter_mode
FNDA:4,_RNvMNtNtCs5Hx9zLFZsDi_6muster3app5stateNtB2_3App10switch_tab
FNDA:1,_RNvMNtNtCs5Hx9zLFZsDi_6muster3app5stateNtB2_3App11clear_error
FNDA:5,_RNvMNtNtCs5Hx9zLFZsDi_6muster3app5stateNtB2_3App11handle_char
FNDA:3,_RNvMNtNtCs5Hx9zLFZsDi_6muster3app5stateNtB2_3App11scroll_down
FNDA:5,_RNvMNtNtCs5Hx9zLFZsDi_6muster3app5stateNtB2_3App11select_next
FNDA:4,_RNvMNtNtCs5Hx9zLFZsDi_6muster3app5stateNtB2_3App11select_prev
FNDA:1,_RNvMNtNtCs5Hx9zLFZsDi_6muster3app5stateNtB2_3App12clear_status
FNDA:12,_RNvMNtNtCs5Hx9zLFZsDi_6muster3app5stateNtB2_3App12reset_scroll
FNDA:2,_RNvMNtNtCs5Hx9zLFZsDi_6muster3app5stateNtB2_3App13scroll_to_top
FNDA:0,_RNvMNtNtCs5Hx9zLFZsDi_6muster3app5stateNtB2_3App14request_attach
FNDA:35,_RNvMNtNtCs5Hx9zLFZsDi_6muster3app5stateNtB2_3App14selected_agent
FNDA:1,_RNvMNtNtCs5Hx9zLFZsDi_6muster3app5stateNtB2_3App14selected_depth
FNDA:5,_RNvMNtNtCs5Hx9zLFZsDi_6muster3app5stateNtB2_3App16handle_backspace
FNDA:2,_RNvMNtNtCs5Hx9zLFZsDi_6muster3app5stateNtB2_3App16scroll_to_bottom
FNDA:4,_RNvMNtNtCs5Hx9zLFZsDi_6muster3app5stateNtB2_3App18has_running_agents
FNDA:7,_RNvMNtNtCs5Hx9zLFZsDi_6muster3app5stateNtB2_3App18selected_agent_mut
FNDA:3,_RNvMNtNtCs5Hx9zLFZsDi_6muster3app5stateNtB2_3App18validate_selection
FNDA:2,_RNvMNtNtCs5Hx9zLFZsDi_6muster3app5stateNtB2_3App19running_agent_count
FNDA:2,_RNvMNtNtCs5Hx9zLFZsDi_6muster3app5stateNtB2_3App19start_spawning_root
FNDA:2,_RNvMNtNtCs5Hx9zLFZsDi_6muster3app5stateNtB2_3App20start_spawning_under
FNDA:2,_RNvMNtNtCs5Hx9zLFZsDi_6muster3app5stateNtB2_3App21decrement_child_count
FNDA:1,_RNvMNtNtCs5Hx9zLFZsDi_6muster3app5stateNtB2_3App21increment_child_count
FNDA:1,_RNvMNtNtCs5Hx9zLFZsDi_6muster3app5stateNtB2_3App21selected_has_children
FNDA:4,_RNvMNtNtCs5Hx9zLFZsDi_6muster3app5stateNtB2_3App22set_preview_dimensions
FNDA:1,_RNvMNtNtCs5Hx9zLFZsDi_6muster3app5stateNtB2_3App23proceed_to_child_prompt
FNDA:2,_RNvMNtNtCs5Hx9zLFZsDi_6muster3app5stateNtB2_3App24toggle_selected_collapse
FNDA:74,_RNvMNtNtCs5Hx9zLFZsDi_6muster3app5stateNtB2_3App3new
FNDA:5,_RNvMNtNtCs5Hx9zLFZsDi_6muster3app5stateNtB2_3App9exit_mode
FNDA:3,_RNvMNtNtCs5Hx9zLFZsDi_6muster3app5stateNtB2_3App9scroll_up
FNDA:11,_RNvNtNtNtCs5Hx9zLFZsDi_6muster3app5state5tests17create_test_agent
FNDA:1,_RNvNtNtNtCs5Hx9zLFZsDi_6muster3app5state5testss_11test_scroll
FNDA:1,_RNvNtNtNtCs5Hx9zLFZsDi_6muster3app5state5testss_12test_app_new
FNDA:1,_RNvNtNtNtCs5Hx9zLFZsDi_6muster3app5state5testss_14test_tab_serde
FNDA:1,_RNvNtNtNtCs5Hx9zLFZsDi_6muster3app5state5testss_15test_switch_tab
FNDA:1,_RNvNtNtNtCs5Hx9zLFZsDi_6muster3app5state5testss_16test_handle_char
FNDA:1,_RNvNtNtNtCs5Hx9zLFZsDi_6muster3app5state5testss_16test_select_next
FNDA:1,_RNvNtNtNtCs5Hx9zLFZsDi_6muster3app5state5testss_16test_select_prev
FNDA:1,_RNvNtNtNtCs5Hx9zLFZsDi_6muster3app5state5testss_16test_tab_display
FNDA:1,_RNvNtNtNtCs5Hx9zLFZsDi_6muster3app5state5testss_17test_reset_scroll
FNDA:1,_RNvNtNtNtCs5Hx9zLFZsDi_6muster3app5state5testss_18test_scroll_to_top
FNDA:1,_RNvNtNtNtCs5Hx9zLFZsDi_6muster3app5state5testss_19test_error_handling
FNDA:1,_RNvNtNtNtCs5Hx9zLFZsDi_6muster3app5state5testss_19test_selected_agent
FNDA:1,_RNvNtNtNtCs5Hx9zLFZsDi_6muster3app5state5testss_19test_selected_depth
FNDA:1,_RNvNtNtNtCs5Hx9zLFZsDi_6muster3app5state5testss_20test_enter_exit_mode
FNDA:1,_RNvNtNtNtCs5Hx9zLFZsDi_6muster3app5state5testss_20test_status_handling
FNDA:1,_RNvNtNtNtCs5Hx9zLFZsDi_6muster3app5state5testss_21test_app_mode_default
FNDA:1,_RNvNtNtNtCs5Hx9zLFZsDi_6muster3app5state5testss_21test_handle_backspace
FNDA:1,_RNvNtNtNtCs5Hx9zLFZsDi_6muster3app5state5testss_21test_scroll_to_bottom
FNDA:1,_RNvNtNtNtCs5Hx9zLFZsDi_6muster3app5state5testss_23test_input_mode_default
FNDA:1,_RNvNtNtNtCs5Hx9zLFZsDi_6muster3app5state5testss_23test_selected_agent_mut
FNDA:1,_RNvNtNtNtCs5Hx9zLFZsDi_6muster3app5state5testss_23test_validate_selection
FNDA:1,_RNvNtNtNtCs5Hx9zLFZsDi_6muster3app5state5testss_24test_running_agent_count
FNDA:1,_RNvNtNtNtCs5Hx9zLFZsDi_6muster3app5state5testss_24test_start_spawning_root
FNDA:1,_RNvNtNtNtCs5Hx9zLFZsDi_6muster3app5state5testss_25test_select_empty_storage
FNDA:1,_RNvNtNtNtCs5Hx9zLFZsDi_6muster3app5state5testss_25test_start_spawning_under
FNDA:1,_RNvNtNtNtCs5Hx9zLFZsDi_6muster3app5state5testss_26test_decrement_child_count
FNDA:1,_RNvNtNtNtCs5Hx9zLFZsDi_6muster3app5state5testss_26test_increment_child_count
FNDA:1,_RNvNtNtNtCs5Hx9zLFZsDi_6muster3app5state5testss_26test_selected_has_children
FNDA:1,_RNvNtNtNtCs5Hx9zLFZsDi_6muster3app5state5testss_27test_set_preview_dimensions
FNDA:1,_RNvNtNtNtCs5Hx9zLFZsDi_6muster3app5state5testss_28test_confirm_action_equality
FNDA:1,_RNvNtNtNtCs5Hx9zLFZsDi_6muster3app5state5testss_28test_proceed_to_child_prompt
FNDA:1,_RNvNtNtNtCs5Hx9zLFZsDi_6muster3app5state5testss_29test_toggle_selected_collapse
FNDA:2,_RNvXs0_NtNtCs5Hx9zLFZsDi_6muster3app5stateNtB5_3TabNtNtCs4Vq2ZLagKfv_4core3fmt7Display3fmt
FNDA:27,_RNvXs_NtNtCs5Hx9zLFZsDi_6muster3app5stateNtB4_3AppNtNtCs4Vq2ZLagKfv_4core7default7Default7default
FNDA:0,_RNvMNtNtCs5Hx9zLFZsDi_6muster3app5stateNtB2_3App13dismiss_error
FNDA:0,_RNvMNtNtCs5Hx9zLFZsDi_6muster3app5stateNtB2_3App18has_attach_request
FNDA:0,_RNvMNtNtCs5Hx9zLFZsDi_6muster3app5stateNtB2_3App20clear_attach_request
FNF:74
FNH:69
DA:65,158
DA:66,158
DA:67,158
DA:68,158
DA:69,158
DA:70,158
DA:71,158
DA:72,158
DA:73,158
DA:74,158
DA:75,158
DA:76,158
DA:77,158
DA:78,158
DA:79,158
DA:80,158
DA:81,158
DA:82,158
DA:83,158
DA:84,158
DA:85,158
DA:89,48
DA:90,48
DA:91,48
DA:94,12
DA:96,12
DA:97,11
DA:98,12
DA:101,18
DA:102,18
DA:103,18
DA:104,14
DA:105,14
DA:106,14
DA:107,18
DA:110,7
DA:111,7
DA:112,7
DA:113,3
DA:114,3
DA:115,4
DA:116,7
DA:119,8
DA:120,8
DA:121,7
DA:122,1
DA:124,8
DA:125,8
DA:128,26
DA:129,26
DA:130,26
DA:131,26
DA:134,4
DA:135,4
DA:136,4
DA:137,4
DA:138,4
DA:139,0
DA:140,0
DA:141,0
DA:143,4
DA:146,4
DA:147,4
DA:148,3
DA:149,3
DA:150,3
DA:151,1
DA:152,1
DA:153,1
DA:155,4
DA:158,4
DA:159,4
DA:160,4
DA:161,0
DA:163,4
DA:166,4
DA:167,4
DA:168,4
DA:169,4
DA:170,0
DA:172,4
DA:175,59
DA:176,59
DA:177,59
DA:184,59
DA:185,59
DA:186,47
DA:187,47
DA:188,59
DA:191,23
DA:192,23
DA:193,23
DA:194,23
DA:197,14
DA:198,14
DA:199,14
DA:200,14
DA:201,14
DA:204,1
DA:205,1
DA:206,1
DA:209,2
DA:210,2
DA:211,2
DA:212,2
DA:213,2
DA:214,2
DA:217,31
DA:218,31
DA:219,31
DA:222,1
DA:223,1
DA:224,1
DA:227,0
DA:228,0
DA:229,0
DA:232,0
DA:233,0
DA:234,0
DA:238,0
DA:239,0
DA:240,0
DA:244,5
DA:245,5
DA:246,5
DA:250,30
DA:251,30
DA:252,30
DA:253,103
DA:254,30
DA:255,30
DA:258,49
DA:259,1
DA:260,49
DA:266,48
DA:267,48
DA:268,48
DA:269,49
DA:272,7
DA:273,0
DA:274,7
DA:280,7
DA:281,7
DA:282,7
DA:283,7
DA:286,5
DA:287,5
DA:288,5
DA:289,4
DA:290,4
DA:291,1
DA:292,1
DA:293,5
DA:298,1
DA:299,1
DA:300,1
DA:303,2
DA:304,2
DA:305,1
DA:306,1
DA:307,2
DA:310,2
DA:311,2
DA:312,2
DA:313,2
DA:314,2
DA:317,2
DA:318,2
DA:319,2
DA:320,2
DA:321,2
DA:324,1
DA:325,1
DA:326,1
DA:329,2
DA:330,2
DA:331,2
DA:332,2
DA:333,2
DA:337,1
DA:338,1
DA:339,1
DA:340,1
DA:343,6
DA:344,6
DA:345,6
DA:349,1
DA:350,1
DA:351,1
DA:352,1
DA:356,27
DA:357,27
DA:358,27
DA:419,2
DA:420,2
DA:421,1
DA:422,1
DA:424,2
DA:433,11
DA:434,11
DA:435,11
DA:436,11
DA:437,11
DA:438,11
DA:439,11
DA:441,11
DA:444,1
DA:445,1
DA:446,1
DA:447,1
DA:448,1
DA:449,1
DA:450,1
DA:453,1
DA:454,1
DA:455,1
DA:456,1
DA:457,1
DA:459,1
DA:460,1
DA:461,1
DA:462,1
DA:463,1
DA:464,1
DA:465,1
DA:466,1
DA:469,1
DA:470,1
DA:471,1
DA:472,1
DA:473,1
DA:475,1
DA:476,1
DA:477,1
DA:478,1
DA:479,1
DA:480,1
DA:483,1
DA:484,1
DA:485,1
DA:486,1
DA:487,1
DA:488,1
DA:489,1
DA:492,1
DA:493,1
DA:494,1
DA:496,1
DA:497,1
DA:499,1
DA:500,1
DA:501,1
DA:504,1
DA:505,1
DA:507,1
DA:508,1
DA:510,1
DA:511,1
DA:513,1
DA:514,1
DA:516,1
DA:517,1
DA:518,1
DA:519,1
DA:522,1
DA:523,1
DA:524,1
DA:525,1
DA:526,1
DA:527,1
DA:528,1
DA:529,1
DA:532,1
DA:533,1
DA:534,1
DA:535,1
DA:536,1
DA:539,1
DA:540,1
DA:542,1
DA:543,1
DA:544,1
DA:546,1
DA:547,1
DA:548,1
DA:549,1
DA:550,1
DA:553,1
DA:554,1
DA:556,1
DA:557,1
DA:559,1
DA:560,1
DA:561,1
DA:564,1
DA:565,1
DA:567,1
DA:568,1
DA:570,1
DA:571,1
DA:572,1
DA:575,1
DA:576,1
DA:577,1
DA:579,1
DA:580,1
DA:581,1
DA:582,1
DA:583,1
DA:586,1
DA:587,1
DA:588,1
DA:590,1
DA:591,1
DA:592,1
DA:594,1
DA:595,1
DA:598,1
DA:599,1
DA:602,1
DA:603,1
DA:605,1
DA:606,1
DA:608,1
DA:609,1
DA:610,1
DA:611,1
DA:612,1
DA:613,1
DA:614,1
DA:617,1
DA:618,1
DA:619,1
DA:620,1
DA:622,1
DA:623,1
DA:625,1
DA:626,1
DA:627,1
DA:628,1
DA:630,1
DA:631,1
DA:632,1
DA:635,1
DA:636,1
DA:637,1
DA:638,1
DA:640,1
DA:641,1
DA:642,1
DA:644,1
DA:645,1
DA:646,1
DA:649,1
DA:650,1
DA:651,1
DA:652,1
DA:654,1
DA:655,1
DA:656,1
DA:659,1
DA:660,1
DA:661,1
DA:662,1
DA:665,1
DA:666,1
DA:667,1
DA:670,1
DA:671,1
DA:672,1
DA:675,1
DA:676,1
DA:677,1
DA:678,1
DA:679,1
DA:680,1
DA:681,1
DA:684,1
DA:685,1
DA:686,1
DA:687,1
DA:690,1
DA:691,1
DA:692,1
DA:693,1
DA:694,1
DA:695,1
DA:697,1
DA:699,1
DA:700,1
DA:701,1
DA:704,1
DA:705,1
DA:706,1
DA:707,1
DA:708,1
DA:709,1
DA:712,1
DA:713,1
DA:714,1
DA:715,1
DA:716,1
DA:717,1
DA:718,1
DA:719,1
DA:722,1
DA:723,1
DA:724,1
DA:725,1
DA:726,1
DA:727,1
DA:728,1
DA:729,1
DA:732,1
DA:733,1
DA:734,1
DA:735,1
DA:736,1
DA:737,1
DA:738,1
DA:741,1
DA:742,1
DA:743,1
DA:744,1
DA:745,1
DA:748,1
DA:749,1
DA:750,1
DA:751,1
DA:752,1
DA:754,1
DA:755,1
DA:757,1
DA:758,1
DA:759,1
DA:760,1
DA:763,1
DA:764,1
DA:765,1
DA:766,1
DA:769,1
DA:770,1
DA:771,1
DA:772,1
DA:775,1
DA:776,1
DA:779,1
DA:782,1
DA:783,1
DA:786,1
DA:787,1
DA:788,1
BRF:0
BRH:0
LF:456
LH:439
end_of_record
SF:/home/quinten/Documents/Software_Development/muster/src/config/keys.rs
FN:375,_RNCNvNtNtCs3bOdyUEi4qt_6muster6config4keys12status_hints0B7_
FN:72,_RNvMNtNtCs3bOdyUEi4qt_6muster6config4keysNtB2_11ActionGroup5title
FN:242,_RNvMs_NtNtCs3bOdyUEi4qt_6muster6config4keysNtB4_6Action11description
FN:272,_RNvMs_NtNtCs3bOdyUEi4qt_6muster6config4keysNtB4_6Action4keys
FN:300,_RNvMs_NtNtCs3bOdyUEi4qt_6muster6config4keysNtB4_6Action5group
FN:353,_RNvNtNtCs3bOdyUEi4qt_6muster6config4keys10get_action
FN:364,_RNvNtNtCs3bOdyUEi4qt_6muster6config4keys12status_hints
FN:375,_RNCNvNtNtCs5Hx9zLFZsDi_6muster6config4keys12status_hints0B7_
FN:242,_RNvMs_NtNtCs5Hx9zLFZsDi_6muster6config4keysNtB4_6Action11description
FN:272,_RNvMs_NtNtCs5Hx9zLFZsDi_6muster6config4keysNtB4_6Action4keys
FN:353,_RNvNtNtCs5Hx9zLFZsDi_6muster6config4keys10get_action
FN:364,_RNvNtNtCs5Hx9zLFZsDi_6muster6config4keys12status_hints
FN:453,_RNvNtNtNtCs5Hx9zLFZsDi_6muster6config4keys5testss_16test_action_keys
FN:388,_RNvNtNtNtCs5Hx9zLFZsDi_6muster6config4keys5testss_16test_keybindings
FN:448,_RNvNtNtNtCs5Hx9zLFZsDi_6muster6config4keys5testss_16test_unknown_key
FN:460,_RNvNtNtNtCs5Hx9zLFZsDi_6muster6config4keys5testss_17test_status_hints
FN:404,_RNvNtNtNtCs5Hx9zLFZsDi_6muster6config4keys5testss_18test_modifier_keys
FN:469,_RNvNtNtNtCs5Hx9zLFZsDi_6muster6config4keys5testss_23test_action_description
FN:416,_RNvNtNtNtCs5Hx9zLFZsDi_6muster6config4keys5testss_26test_uppercase_keybindings
FN:72,_RNvMNtNtCs5Hx9zLFZsDi_6muster6config4keysNtB2_11ActionGroup5title
FN:300,_RNvMs_NtNtCs5Hx9zLFZsDi_6muster6config4keysNtB4_6Action5group
FNDA:110,_RNCNvNtNtCs3bOdyUEi4qt_6muster6config4keys12status_hints0B7_
FNDA:3,_RNvMNtNtCs3bOdyUEi4qt_6muster6config4keysNtB2_11ActionGroup5title
FNDA:18,_RNvMs_NtNtCs3bOdyUEi4qt_6muster6config4keysNtB4_6Action11description
FNDA:128,_RNvMs_NtNtCs3bOdyUEi4qt_6muster6config4keysNtB4_6Action4keys
FNDA:18,_RNvMs_NtNtCs3bOdyUEi4qt_6muster6config4keysNtB4_6Action5group
FNDA:19,_RNvNtNtCs3bOdyUEi4qt_6muster6config4keys10get_action
FNDA:22,_RNvNtNtCs3bOdyUEi4qt_6muster6config4keys12status_hints
FNDA:5,_RNCNvNtNtCs5Hx9zLFZsDi_6muster6config4keys12status_hints0B7_
FNDA:2,_RNvMs_NtNtCs5Hx9zLFZsDi_6muster6config4keysNtB4_6Action11description
FNDA:8,_RNvMs_NtNtCs5Hx9zLFZsDi_6muster6config4keysNtB4_6Action4keys
FNDA:11,_RNvNtNtCs5Hx9zLFZsDi_6muster6config4keys10get_action
FNDA:1,_RNvNtNtCs5Hx9zLFZsDi_6muster6config4keys12status_hints
FNDA:1,_RNvNtNtNtCs5Hx9zLFZsDi_6muster6config4keys5testss_16test_action_keys
FNDA:1,_RNvNtNtNtCs5Hx9zLFZsDi_6muster6config4keys5testss_16test_keybindings
FNDA:1,_RNvNtNtNtCs5Hx9zLFZsDi_6muster6config4keys5testss_16test_unknown_key
FNDA:1,_RNvNtNtNtCs5Hx9zLFZsDi_6muster6config4keys5testss_17test_status_hints
FNDA:1,_RNvNtNtNtCs5Hx9zLFZsDi_6muster6config4keys5testss_18test_modifier_keys
FNDA:1,_RNvNtNtNtCs5Hx9zLFZsDi_6muster6config4keys5testss_23test_action_description
FNDA:1,_RNvNtNtNtCs5Hx9zLFZsDi_6muster6config4keys5testss_26test_uppercase_keybindings
FNDA:0,_RNvMNtNtCs5Hx9zLFZsDi_6muster6config4keysNtB2_11ActionGroup5title
FNDA:0,_RNvMs_NtNtCs5Hx9zLFZsDi_6muster6config4keysNtB4_6Action5group
FNF:14
FNH:14
DA:72,3
DA:73,3
DA:74,1
DA:75,1
DA:76,1
DA:77,0
DA:79,3
DA:242,20
DA:243,20
DA:244,2
DA:245,1
DA:246,1
DA:247,1
DA:248,0
DA:249,0
DA:250,0
DA:251,1
DA:252,1
DA:253,1
DA:254,1
DA:255,1
DA:256,1
DA:257,1
DA:258,1
DA:259,1
DA:260,0
DA:261,0
DA:262,2
DA:263,1
DA:264,1
DA:265,1
DA:266,1
DA:268,20
DA:272,136
DA:273,136
DA:274,25
DA:275,1
DA:276,1
DA:277,24
DA:278,24
DA:279,2
DA:280,1
DA:281,24
DA:282,24
DA:283,1
DA:284,1
DA:285,1
DA:286,1
DA:287,0
DA:288,0
DA:289,2
DA:290,1
DA:291,1
DA:292,1
DA:293,1
DA:294,0
DA:296,136
DA:300,18
DA:301,18
DA:308,7
DA:317,9
DA:318,2
DA:320,0
DA:323,18
DA:353,30
DA:354,492
DA:355,490
DA:356,28
DA:357,462
DA:359,2
DA:360,30
DA:364,23
DA:365,23
DA:366,23
DA:367,23
DA:368,23
DA:369,23
DA:370,23
DA:371,23
DA:373,23
DA:374,23
DA:375,115
DA:376,115
DA:377,115
DA:378,115
DA:379,23
DA:380,23
DA:381,23
DA:388,1
DA:389,1
DA:390,1
DA:393,1
DA:394,1
DA:397,1
DA:398,1
DA:401,1
DA:404,1
DA:405,1
DA:406,1
DA:409,1
DA:410,1
DA:413,1
DA:416,1
DA:418,1
DA:419,1
DA:423,1
DA:424,1
DA:429,1
DA:430,1
DA:435,1
DA:436,1
DA:441,1
DA:442,1
DA:445,1
DA:448,1
DA:449,1
DA:450,1
DA:453,1
DA:454,1
DA:455,1
DA:456,1
DA:457,1
DA:460,1
DA:461,1
DA:462,1
DA:463,1
DA:464,1
DA:465,1
DA:466,1
DA:469,1
DA:470,1
DA:471,1
DA:472,1
BRF:0
BRH:0
LF:134
LH:124
end_of_record
SF:/home/quinten/Documents/Software_Development/muster/src/config/mod.rs
FN:144,_RNCNvMs_NtCs3bOdyUEi4qt_6muster6configNtB6_6Config10state_path0B8_
FN:135,_RNCNvMs_NtCs3bOdyUEi4qt_6muster6configNtB6_6Config12default_path0B8_
FN:154,_RNCNvMs_NtCs3bOdyUEi4qt_6muster6configNtB6_6Config20generate_branch_name0B8_
FN:121,_RNCNvMs_NtCs3bOdyUEi4qt_6muster6configNtB6_6Config7save_to0B8_
FN:127,_RNCNvMs_NtCs3bOdyUEi4qt_6muster6configNtB6_6Config7save_tos_0B8_
FN:98,_RNCNvMs_NtCs3bOdyUEi4qt_6muster6configNtB6_6Config9load_from0B8_
FN:100,_RNCNvMs_NtCs3bOdyUEi4qt_6muster6configNtB6_6Config9load_froms_0B8_
FN:58,_RNCNvNtCs3bOdyUEi4qt_6muster6config20default_worktree_dir0B5_
FN:142,_RNvMs_NtCs3bOdyUEi4qt_6muster6configNtB4_6Config10state_path
FN:133,_RNvMs_NtCs3bOdyUEi4qt_6muster6configNtB4_6Config12default_path
FN:151,_RNvMs_NtCs3bOdyUEi4qt_6muster6configNtB4_6Config20generate_branch_name
FN:82,_RNvMs_NtCs3bOdyUEi4qt_6muster6configNtB4_6Config4load
FN:109,_RNvMs_NtCs3bOdyUEi4qt_6muster6configNtB4_6Config4save
FN:119,_RNvMs_NtCs3bOdyUEi4qt_6muster6configNtB4_6Config7save_to
FN:96,_RNvMs_NtCs3bOdyUEi4qt_6muster6configNtB4_6Config9load_from
FN:40,_RNvNtCs3bOdyUEi4qt_6muster6config15default_program
FN:52,_RNvNtCs3bOdyUEi4qt_6muster6config18default_max_agents
FN:56,_RNvNtCs3bOdyUEi4qt_6muster6config20default_worktree_dir
FN:44,_RNvNtCs3bOdyUEi4qt_6muster6config21default_branch_prefix
FN:48,_RNvNtCs3bOdyUEi4qt_6muster6config21default_poll_interval
FN:64,_RNvXNtCs3bOdyUEi4qt_6muster6configNtB2_6ConfigNtNtCs4Vq2ZLagKfv_4core7default7Default7default
FN:144,_RNCNvMs_NtCs5Hx9zLFZsDi_6muster6configNtB6_6Config10state_path0B8_
FN:135,_RNCNvMs_NtCs5Hx9zLFZsDi_6muster6configNtB6_6Config12default_path0B8_
FN:154,_RNCNvMs_NtCs5Hx9zLFZsDi_6muster6configNtB6_6Config20generate_branch_name0B8_
FN:121,_RNCNvMs_NtCs5Hx9zLFZsDi_6muster6configNtB6_6Config7save_to0B8_
FN:127,_RNCNvMs_NtCs5Hx9zLFZsDi_6muster6configNtB6_6Config7save_tos_0B8_
FN:98,_RNCNvMs_NtCs5Hx9zLFZsDi_6muster6configNtB6_6Config9load_from0B8_
FN:100,_RNCNvMs_NtCs5Hx9zLFZsDi_6muster6configNtB6_6Config9load_froms_0B8_
FN:58,_RNCNvNtCs5Hx9zLFZsDi_6muster6config20default_worktree_dir0B5_
FN:142,_RNvMs_NtCs5Hx9zLFZsDi_6muster6configNtB4_6Config10state_path
FN:133,_RNvMs_NtCs5Hx9zLFZsDi_6muster6configNtB4_6Config12default_path
FN:151,_RNvMs_NtCs5Hx9zLFZsDi_6muster6configNtB4_6Config20generate_branch_name
FN:119,_RNvMs_NtCs5Hx9zLFZsDi_6muster6configNtB4_6Config7save_to
FN:96,_RNvMs_NtCs5Hx9zLFZsDi_6muster6configNtB4_6Config9load_from
FN:40,_RNvNtCs5Hx9zLFZsDi_6muster6config15default_program
FN:52,_RNvNtCs5Hx9zLFZsDi_6muster6config18default_max_agents
FN:56,_RNvNtCs5Hx9zLFZsDi_6muster6config20default_worktree_dir
FN:44,_RNvNtCs5Hx9zLFZsDi_6muster6config21default_branch_prefix
FN:48,_RNvNtCs5Hx9zLFZsDi_6muster6config21default_poll_interval
FN:294,_RNvNtNtCs5Hx9zLFZsDi_6muster6config5testss_17test_config_clone
FN:301,_RNvNtNtCs5Hx9zLFZsDi_6muster6config5testss_17test_config_debug
FN:252,_RNvNtNtCs5Hx9zLFZsDi_6muster6config5testss_18test_default_paths
FN:188,_RNvNtNtCs5Hx9zLFZsDi_6muster6config5testss_18test_save_and_load
FN:178,_RNvNtNtCs5Hx9zLFZsDi_6muster6config5testss_19test_default_config
FN:241,_RNvNtNtCs5Hx9zLFZsDi_6muster6config5testss_19test_serde_defaults
FN:218,_RNvNtNtCs5Hx9zLFZsDi_6muster6config5testss_25test_generate_branch_name
FN:276,_RNvNtNtCs5Hx9zLFZsDi_6muster6config5testss_29test_save_creates_parent_dirs
FN:288,_RNvNtNtCs5Hx9zLFZsDi_6muster6config5testss_34test_default_worktree_dir_has_path
FN:233,_RNvNtNtCs5Hx9zLFZsDi_6muster6config5testss_36test_generate_branch_name_truncation
FN:209,_RNvNtNtCs5Hx9zLFZsDi_6muster6config5testss_37test_load_nonexistent_returns_default
FN:261,_RNvNtNtCs5Hx9zLFZsDi_6muster6config5testss_39test_generate_branch_name_special_chars
FN:64,_RNvXNtCs5Hx9zLFZsDi_6muster6configNtB2_6ConfigNtNtCs4Vq2ZLagKfv_4core7default7Default7default
FN:82,_RNvMs_NtCs5Hx9zLFZsDi_6muster6configNtB4_6Config4load
FN:109,_RNvMs_NtCs5Hx9zLFZsDi_6muster6configNtB4_6Config4save
FNDA:0,_RNCNvMs_NtCs3bOdyUEi4qt_6muster6configNtB6_6Config10state_path0B8_
FNDA:0,_RNCNvMs_NtCs3bOdyUEi4qt_6muster6configNtB6_6Config12default_path0B8_
FNDA:187,_RNCNvMs_NtCs3bOdyUEi4qt_6muster6configNtB6_6Config20generate_branch_name0B8_
FNDA:0,_RNCNvMs_NtCs3bOdyUEi4qt_6muster6configNtB6_6Config7save_to0B8_
FNDA:0,_RNCNvMs_NtCs3bOdyUEi4qt_6muster6configNtB6_6Config7save_tos_0B8_
FNDA:0,_RNCNvMs_NtCs3bOdyUEi4qt_6muster6configNtB6_6Config9load_from0B8_
FNDA:0,_RNCNvMs_NtCs3bOdyUEi4qt_6muster6configNtB6_6Config9load_froms_0B8_
FNDA:0,_RNCNvNtCs3bOdyUEi4qt_6muster6config20default_worktree_dir0B5_
FNDA:93,_RNvMs_NtCs3bOdyUEi4qt_6muster6configNtB4_6Config10state_path
FNDA:7,_RNvMs_NtCs3bOdyUEi4qt_6muster6configNtB4_6Config12default_path
FNDA:19,_RNvMs_NtCs3bOdyUEi4qt_6muster6configNtB4_6Config20generate_branch_name
FNDA:4,_RNvMs_NtCs3bOdyUEi4qt_6muster6configNtB4_6Config4load
FNDA:1,_RNvMs_NtCs3bOdyUEi4qt_6muster6configNtB4_6Config4save
FNDA:7,_RNvMs_NtCs3bOdyUEi4qt_6muster6configNtB4_6Config7save_to
FNDA:9,_RNvMs_NtCs3bOdyUEi4qt_6muster6configNtB4_6Config9load_from
FNDA:48,_RNvNtCs3bOdyUEi4qt_6muster6config15default_program
FNDA:48,_RNvNtCs3bOdyUEi4qt_6muster6config18default_max_agents
FNDA:48,_RNvNtCs3bOdyUEi4qt_6muster6config20default_worktree_dir
FNDA:48,_RNvNtCs3bOdyUEi4qt_6muster6config21default_branch_prefix
FNDA:48,_RNvNtCs3bOdyUEi4qt_6muster6config21default_poll_interval
FNDA:48,_RNvXNtCs3bOdyUEi4qt_6muster6configNtB2_6ConfigNtNtCs4Vq2ZLagKfv_4core7default7Default7default
FNDA:0,_RNCNvMs_NtCs5Hx9zLFZsDi_6muster6configNtB6_6Config10state_path0B8_
FNDA:0,_RNCNvMs_NtCs5Hx9zLFZsDi_6muster6configNtB6_6Config12default_path0B8_
FNDA:154,_RNCNvMs_NtCs5Hx9zLFZsDi_6muster6configNtB6_6Config20generate_branch_name0B8_
FNDA:0,_RNCNvMs_NtCs5Hx9zLFZsDi_6muster6configNtB6_6Config7save_to0B8_
FNDA:0,_RNCNvMs_NtCs5Hx9zLFZsDi_6muster6configNtB6_6Config7save_tos_0B8_
FNDA:1,_RNCNvMs_NtCs5Hx9zLFZsDi_6muster6configNtB6_6Config9load_from0B8_
FNDA:0,_RNCNvMs_NtCs5Hx9zLFZsDi_6muster6configNtB6_6Config9load_froms_0B8_
FNDA:0,_RNCNvNtCs5Hx9zLFZsDi_6muster6config20default_worktree_dir0B5_
FNDA:6,_RNvMs_NtCs5Hx9zLFZsDi_6muster6configNtB4_6Config10state_path
FNDA:1,_RNvMs_NtCs5Hx9zLFZsDi_6muster6configNtB4_6Config12default_path
FNDA:6,_RNvMs_NtCs5Hx9zLFZsDi_6muster6configNtB4_6Config20generate_branch_name
FNDA:2,_RNvMs_NtCs5Hx9zLFZsDi_6muster6configNtB4_6Config7save_to
FNDA:2,_RNvMs_NtCs5Hx9zLFZsDi_6muster6configNtB4_6Config9load_from
FNDA:81,_RNvNtCs5Hx9zLFZsDi_6muster6config15default_program
FNDA:82,_RNvNtCs5Hx9zLFZsDi_6muster6config18default_max_agents
FNDA:83,_RNvNtCs5Hx9zLFZsDi_6muster6config20default_worktree_dir
FNDA:82,_RNvNtCs5Hx9zLFZsDi_6muster6config21default_branch_prefix
FNDA:82,_RNvNtCs5Hx9zLFZsDi_6muster6config21default_poll_interval
FNDA:1,_RNvNtNtCs5Hx9zLFZsDi_6muster6config5testss_17test_config_clone
FNDA:1,_RNvNtNtCs5Hx9zLFZsDi_6muster6config5testss_17test_config_debug
FNDA:1,_RNvNtNtCs5Hx9zLFZsDi_6muster6config5testss_18test_default_paths
FNDA:1,_RNvNtNtCs5Hx9zLFZsDi_6muster6config5testss_18test_save_and_load
FNDA:1,_RNvNtNtCs5Hx9zLFZsDi_6muster6config5testss_19test_default_config
FNDA:1,_RNvNtNtCs5Hx9zLFZsDi_6muster6config5testss_19test_serde_defaults
FNDA:1,_RNvNtNtCs5Hx9zLFZsDi_6muster6config5testss_25test_generate_branch_name
FNDA:1,_RNvNtNtCs5Hx9zLFZsDi_6muster6config5testss_29test_save_creates_parent_dirs
FNDA:1,_RNvNtNtCs5Hx9zLFZsDi_6muster6config5testss_34test_default_worktree_dir_has_path
FNDA:1,_RNvNtNtCs5Hx9zLFZsDi_6muster6config5testss_36test_generate_branch_name_truncation
FNDA:1,_RNvNtNtCs5Hx9zLFZsDi_6muster6config5testss_37test_load_nonexistent_returns_default
FNDA:1,_RNvNtNtCs5Hx9zLFZsDi_6muster6config5testss_39test_generate_branch_name_special_chars
FNDA:81,_RNvXNtCs5Hx9zLFZsDi_6muster6configNtB2_6ConfigNtNtCs4Vq2ZLagKfv_4core7default7Default7default
FNDA:0,_RNvMs_NtCs5Hx9zLFZsDi_6muster6configNtB4_6Config4load
FNDA:0,_RNvMs_NtCs5Hx9zLFZsDi_6muster6configNtB4_6Config4save
FNF:33
FNH:27
DA:40,129
DA:41,129
DA:42,129
DA:44,130
DA:45,130
DA:46,130
DA:48,130
DA:49,130
DA:50,130
DA:52,130
DA:53,130
DA:54,130
DA:56,131
DA:57,131
DA:58,131
DA:59,131
DA:60,131
DA:61,131
DA:64,129
DA:65,129
DA:66,129
DA:67,129
DA:68,129
DA:69,129
DA:70,129
DA:71,129
DA:72,129
DA:73,129
DA:82,4
DA:83,4
DA:84,4
DA:85,3
DA:87,1
DA:89,4
DA:96,11
DA:97,11
DA:98,11
DA:99,10
DA:100,10
DA:101,10
DA:102,11
DA:109,1
DA:110,1
DA:111,1
DA:112,1
DA:119,9
DA:120,9
DA:121,9
DA:122,0
DA:123,0
DA:124,0
DA:125,9
DA:126,9
DA:127,9
DA:128,9
DA:129,9
DA:133,8
DA:134,8
DA:135,8
DA:136,8
DA:137,8
DA:138,8
DA:142,99
DA:143,99
DA:144,99
DA:145,99
DA:146,99
DA:147,99
DA:151,25
DA:152,25
DA:153,25
DA:154,341
DA:155,341
DA:156,329
DA:158,12
DA:160,341
DA:161,25
DA:162,25
DA:163,25
DA:164,1
DA:166,24
DA:168,25
DA:169,25
DA:178,1
DA:179,1
DA:180,1
DA:181,1
DA:182,1
DA:183,1
DA:184,1
DA:185,1
DA:188,1
DA:189,1
DA:190,1
DA:192,1
DA:193,1
DA:194,1
DA:195,1
DA:196,1
DA:197,1
DA:198,1
DA:199,1
DA:201,1
DA:202,1
DA:204,1
DA:205,1
DA:206,1
DA:209,1
DA:210,1
DA:211,1
DA:213,1
DA:214,1
DA:215,1
DA:218,1
DA:219,1
DA:221,1
DA:222,1
DA:225,1
DA:226,1
DA:229,1
DA:230,1
DA:233,1
DA:234,1
DA:235,1
DA:236,1
DA:237,1
DA:238,1
DA:241,1
DA:242,1
DA:243,1
DA:245,1
DA:246,1
DA:247,1
DA:248,1
DA:249,1
DA:252,1
DA:253,1
DA:254,1
DA:256,1
DA:257,1
DA:258,1
DA:261,1
DA:262,1
DA:265,1
DA:266,1
DA:269,1
DA:270,1
DA:273,1
DA:276,1
DA:277,1
DA:278,1
DA:280,1
DA:281,1
DA:283,1
DA:284,1
DA:285,1
DA:288,1
DA:289,1
DA:290,1
DA:291,1
DA:294,1
DA:295,1
DA:296,1
DA:297,1
DA:298,1
DA:301,1
DA:302,1
DA:303,1
DA:304,1
DA:305,1
BRF:0
BRH:0
LF:179
LH:169
end_of_record
SF:/home/quinten/Documents/Software_Development/muster/src/git/branch.rs
FN:154,_RNCNvMs_NtNtCs3bOdyUEi4qt_6muster3git6branchNtB6_7Manager12commit_count0Ba_
FN:47,_RNCNvMs_NtNtCs3bOdyUEi4qt_6muster3git6branchNtB6_7Manager18create_from_commit0Ba_
FN:55,_RNCNvMs_NtNtCs3bOdyUEi4qt_6muster3git6branchNtB6_7Manager18create_from_commits0_0Ba_
FN:51,_RNCNvMs_NtNtCs3bOdyUEi4qt_6muster3git6branchNtB6_7Manager18create_from_commits_0Ba_
FN:35,_RNCNvMs_NtNtCs3bOdyUEi4qt_6muster3git6branchNtB6_7Manager6create0Ba_
FN:69,_RNCNvMs_NtNtCs3bOdyUEi4qt_6muster3git6branchNtB6_7Manager6delete0Ba_
FN:73,_RNCNvMs_NtNtCs3bOdyUEi4qt_6muster3git6branchNtB6_7Manager6deletes_0Ba_
FN:132,_RNCNvMs_NtNtCs3bOdyUEi4qt_6muster3git6branchNtB6_7Manager8checkout0Ba_
FN:140,_RNCNvMs_NtNtCs3bOdyUEi4qt_6muster3git6branchNtB6_7Manager8checkouts0_0Ba_
FN:136,_RNCNvMs_NtNtCs3bOdyUEi4qt_6muster3git6branchNtB6_7Manager8checkouts_0Ba_
FN:150,_RNvMs_NtNtCs3bOdyUEi4qt_6muster3git6branchNtB4_7Manager12commit_count
FN:45,_RNvMs_NtNtCs3bOdyUEi4qt_6muster3git6branchNtB4_7Manager18create_from_commit
FN:20,_RNvMs_NtNtCs3bOdyUEi4qt_6muster3git6branchNtB4_7Manager3new
FN:105,_RNvMs_NtNtCs3bOdyUEi4qt_6muster3git6branchNtB4_7Manager4list
FN:29,_RNvMs_NtNtCs3bOdyUEi4qt_6muster3git6branchNtB4_7Manager6create
FN:65,_RNvMs_NtNtCs3bOdyUEi4qt_6muster3git6branchNtB4_7Manager6delete
FN:80,_RNvMs_NtNtCs3bOdyUEi4qt_6muster3git6branchNtB4_7Manager6exists
FN:89,_RNvMs_NtNtCs3bOdyUEi4qt_6muster3git6branchNtB4_7Manager7current
FN:127,_RNvMs_NtNtCs3bOdyUEi4qt_6muster3git6branchNtB4_7Manager8checkout
FN:12,_RNvXNtNtCs3bOdyUEi4qt_6muster3git6branchNtB2_7ManagerNtNtCs4Vq2ZLagKfv_4core3fmt5Debug3fmt
FN:154,_RNCNvMs_NtNtCs5Hx9zLFZsDi_6muster3git6branchNtB6_7Manager12commit_count0Ba_
FN:47,_RNCNvMs_NtNtCs5Hx9zLFZsDi_6muster3git6branchNtB6_7Manager18create_from_commit0Ba_
FN:55,_RNCNvMs_NtNtCs5Hx9zLFZsDi_6muster3git6branchNtB6_7Manager18create_from_commits0_0Ba_
FN:51,_RNCNvMs_NtNtCs5Hx9zLFZsDi_6muster3git6branchNtB6_7Manager18create_from_commits_0Ba_
FN:35,_RNCNvMs_NtNtCs5Hx9zLFZsDi_6muster3git6branchNtB6_7Manager6create0Ba_
FN:69,_RNCNvMs_NtNtCs5Hx9zLFZsDi_6muster3git6branchNtB6_7Manager6delete0Ba_
FN:73,_RNCNvMs_NtNtCs5Hx9zLFZsDi_6muster3git6branchNtB6_7Manager6deletes_0Ba_
FN:132,_RNCNvMs_NtNtCs5Hx9zLFZsDi_6muster3git6branchNtB6_7Manager8checkout0Ba_
FN:140,_RNCNvMs_NtNtCs5Hx9zLFZsDi_6muster3git6branchNtB6_7Manager8checkouts0_0Ba_
FN:136,_RNCNvMs_NtNtCs5Hx9zLFZsDi_6muster3git6branchNtB6_7Manager8checkouts_0Ba_
FN:264,_RNCNvNtNtNtCs5Hx9zLFZsDi_6muster3git6branch5testss_18test_list_branches0B9_
FN:265,_RNCNvNtNtNtCs5Hx9zLFZsDi_6muster3git6branch5testss_18test_list_branchess_0B9_
FN:150,_RNvMs_NtNtCs5Hx9zLFZsDi_6muster3git6branchNtB4_7Manager12commit_count
FN:45,_RNvMs_NtNtCs5Hx9zLFZsDi_6muster3git6branchNtB4_7Manager18create_from_commit
FN:20,_RNvMs_NtNtCs5Hx9zLFZsDi_6muster3git6branchNtB4_7Manager3new
FN:105,_RNvMs_NtNtCs5Hx9zLFZsDi_6muster3git6branchNtB4_7Manager4list
FN:29,_RNvMs_NtNtCs5Hx9zLFZsDi_6muster3git6branchNtB4_7Manager6create
FN:65,_RNvMs_NtNtCs5Hx9zLFZsDi_6muster3git6branchNtB4_7Manager6delete
FN:80,_RNvMs_NtNtCs5Hx9zLFZsDi_6muster3git6branchNtB4_7Manager6exists
FN:89,_RNvMs_NtNtCs5Hx9zLFZsDi_6muster3git6branchNtB4_7Manager7current
FN:127,_RNvMs_NtNtCs5Hx9zLFZsDi_6muster3git6branchNtB4_7Manager8checkout
FN:177,_RNvNtNtNtCs5Hx9zLFZsDi_6muster3git6branch5tests26init_test_repo_with_commit
FN:270,_RNvNtNtNtCs5Hx9zLFZsDi_6muster3git6branch5testss_11test_exists
FN:281,_RNvNtNtNtCs5Hx9zLFZsDi_6muster3git6branch5testss_13test_checkout
FN:303,_RNvNtNtNtCs5Hx9zLFZsDi_6muster3git6branch5testss_17test_commit_count
FN:201,_RNvNtNtNtCs5Hx9zLFZsDi_6muster3git6branch5testss_18test_create_branch
FN:222,_RNvNtNtNtCs5Hx9zLFZsDi_6muster3git6branch5testss_18test_delete_branch
FN:255,_RNvNtNtNtCs5Hx9zLFZsDi_6muster3git6branch5testss_18test_list_branches
FN:245,_RNvNtNtNtCs5Hx9zLFZsDi_6muster3git6branch5testss_19test_current_branch
FN:314,_RNvNtNtNtCs5Hx9zLFZsDi_6muster3git6branch5testss_23test_create_from_commit
FN:293,_RNvNtNtNtCs5Hx9zLFZsDi_6muster3git6branch5testss_25test_checkout_nonexistent
FN:211,_RNvNtNtNtCs5Hx9zLFZsDi_6muster3git6branch5testss_28test_create_duplicate_branch
FN:235,_RNvNtNtNtCs5Hx9zLFZsDi_6muster3git6branch5testss_30test_delete_nonexistent_branch
FN:328,_RNvNtNtNtCs5Hx9zLFZsDi_6muster3git6branch5testss_31test_create_from_invalid_commit
FN:12,_RNvXNtNtCs5Hx9zLFZsDi_6muster3git6branchNtB2_7ManagerNtNtCs4Vq2ZLagKfv_4core3fmt5Debug3fmt
FNDA:0,_RNCNvMs_NtNtCs3bOdyUEi4qt_6muster3git6branchNtB6_7Manager12commit_count0Ba_
FNDA:0,_RNCNvMs_NtNtCs3bOdyUEi4qt_6muster3git6branchNtB6_7Manager18create_from_commit0Ba_
FNDA:0,_RNCNvMs_NtNtCs3bOdyUEi4qt_6muster3git6branchNtB6_7Manager18create_from_commits0_0Ba_
FNDA:0,_RNCNvMs_NtNtCs3bOdyUEi4qt_6muster3git6branchNtB6_7Manager18create_from_commits_0Ba_
FNDA:0,_RNCNvMs_NtNtCs3bOdyUEi4qt_6muster3git6branchNtB6_7Manager6create0Ba_
FNDA:15,_RNCNvMs_NtNtCs3bOdyUEi4qt_6muster3git6branchNtB6_7Manager6delete0Ba_
FNDA:0,_RNCNvMs_NtNtCs3bOdyUEi4qt_6muster3git6branchNtB6_7Manager6deletes_0Ba_
FNDA:0,_RNCNvMs_NtNtCs3bOdyUEi4qt_6muster3git6branchNtB6_7Manager8checkout0Ba_
FNDA:0,_RNCNvMs_NtNtCs3bOdyUEi4qt_6muster3git6branchNtB6_7Manager8checkouts0_0Ba_
FNDA:0,_RNCNvMs_NtNtCs3bOdyUEi4qt_6muster3git6branchNtB6_7Manager8checkouts_0Ba_
FNDA:0,_RNvMs_NtNtCs3bOdyUEi4qt_6muster3git6branchNtB4_7Manager12commit_count
FNDA:0,_RNvMs_NtNtCs3bOdyUEi4qt_6muster3git6branchNtB4_7Manager18create_from_commit
FNDA:53,_RNvMs_NtNtCs3bOdyUEi4qt_6muster3git6branchNtB4_7Manager3new
FNDA:31,_RNvMs_NtNtCs3bOdyUEi4qt_6muster3git6branchNtB4_7Manager4list
FNDA:0,_RNvMs_NtNtCs3bOdyUEi4qt_6muster3git6branchNtB4_7Manager6create
FNDA:33,_RNvMs_NtNtCs3bOdyUEi4qt_6muster3git6branchNtB4_7Manager6delete
FNDA:0,_RNvMs_NtNtCs3bOdyUEi4qt_6muster3git6branchNtB4_7Manager6exists
FNDA:0,_RNvMs_NtNtCs3bOdyUEi4qt_6muster3git6branchNtB4_7Manager7current
FNDA:0,_RNvMs_NtNtCs3bOdyUEi4qt_6muster3git6branchNtB4_7Manager8checkout
FNDA:0,_RNvXNtNtCs3bOdyUEi4qt_6muster3git6branchNtB2_7ManagerNtNtCs4Vq2ZLagKfv_4core3fmt5Debug3fmt
FNDA:0,_RNCNvMs_NtNtCs5Hx9zLFZsDi_6muster3git6branchNtB6_7Manager12commit_count0Ba_
FNDA:1,_RNCNvMs_NtNtCs5Hx9zLFZsDi_6muster3git6branchNtB6_7Manager18create_from_commit0Ba_
FNDA:0,_RNCNvMs_NtNtCs5Hx9zLFZsDi_6muster3git6branchNtB6_7Manager18create_from_commits0_0Ba_
FNDA:0,_RNCNvMs_NtNtCs5Hx9zLFZsDi_6muster3git6branchNtB6_7Manager18create_from_commits_0Ba_
FNDA:1,_RNCNvMs_NtNtCs5Hx9zLFZsDi_6muster3git6branchNtB6_7Manager6create0Ba_
FNDA:5,_RNCNvMs_NtNtCs5Hx9zLFZsDi_6muster3git6branchNtB6_7Manager6delete0Ba_
FNDA:0,_RNCNvMs_NtNtCs5Hx9zLFZsDi_6muster3git6branchNtB6_7Manager6deletes_0Ba_
FNDA:1,_RNCNvMs_NtNtCs5Hx9zLFZsDi_6muster3git6branchNtB6_7Manager8checkout0Ba_
FNDA:0,_RNCNvMs_NtNtCs5Hx9zLFZsDi_6muster3git6branchNtB6_7Manager8checkouts0_0Ba_
FNDA:0,_RNCNvMs_NtNtCs5Hx9zLFZsDi_6muster3git6branchNtB6_7Manager8checkouts_0Ba_
FNDA:1,_RNCNvNtNtNtCs5Hx9zLFZsDi_6muster3git6branch5testss_18test_list_branches0B9_
FNDA:2,_RNCNvNtNtNtCs5Hx9zLFZsDi_6muster3git6branch5testss_18test_list_branchess_0B9_
FNDA:1,_RNvMs_NtNtCs5Hx9zLFZsDi_6muster3git6branchNtB4_7Manager12commit_count
FNDA:2,_RNvMs_NtNtCs5Hx9zLFZsDi_6muster3git6branchNtB4_7Manager18create_from_commit
FNDA:20,_RNvMs_NtNtCs5Hx9zLFZsDi_6muster3git6branchNtB4_7Manager3new
FNDA:1,_RNvMs_NtNtCs5Hx9zLFZsDi_6muster3git6branchNtB4_7Manager4list
FNDA:8,_RNvMs_NtNtCs5Hx9zLFZsDi_6muster3git6branchNtB4_7Manager6create
FNDA:10,_RNvMs_NtNtCs5Hx9zLFZsDi_6muster3git6branchNtB4_7Manager6delete
FNDA:6,_RNvMs_NtNtCs5Hx9zLFZsDi_6muster3git6branchNtB4_7Manager6exists
FNDA:3,_RNvMs_NtNtCs5Hx9zLFZsDi_6muster3git6branchNtB4_7Manager7current
FNDA:2,_RNvMs_NtNtCs5Hx9zLFZsDi_6muster3git6branchNtB4_7Manager8checkout
FNDA:12,_RNvNtNtNtCs5Hx9zLFZsDi_6muster3git6branch5tests26init_test_repo_with_commit
FNDA:1,_RNvNtNtNtCs5Hx9zLFZsDi_6muster3git6branch5testss_11test_exists
FNDA:1,_RNvNtNtNtCs5Hx9zLFZsDi_6muster3git6branch5testss_13test_checkout
FNDA:1,_RNvNtNtNtCs5Hx9zLFZsDi_6muster3git6branch5testss_17test_commit_count
FNDA:1,_RNvNtNtNtCs5Hx9zLFZsDi_6muster3git6branch5testss_18test_create_branch
FNDA:1,_RNvNtNtNtCs5Hx9zLFZsDi_6muster3git6branch5testss_18test_delete_branch
FNDA:1,_RNvNtNtNtCs5Hx9zLFZsDi_6muster3git6branch5testss_18test_list_branches
FNDA:1,_RNvNtNtNtCs5Hx9zLFZsDi_6muster3git6branch5testss_19test_current_branch
FNDA:1,_RNvNtNtNtCs5Hx9zLFZsDi_6muster3git6branch5testss_23test_create_from_commit
FNDA:1,_RNvNtNtNtCs5Hx9zLFZsDi_6muster3git6branch5testss_25test_checkout_nonexistent
FNDA:1,_RNvNtNtNtCs5Hx9zLFZsDi_6muster3git6branch5testss_28test_create_duplicate_branch
FNDA:1,_RNvNtNtNtCs5Hx9zLFZsDi_6muster3git6branch5testss_30test_delete_nonexistent_branch
FNDA:1,_RNvNtNtNtCs5Hx9zLFZsDi_6muster3git6branch5testss_31test_create_from_invalid_commit
FNDA:0,_RNvXNtNtCs5Hx9zLFZsDi_6muster3git6branchNtB2_7ManagerNtNtCs4Vq2ZLagKfv_4core3fmt5Debug3fmt
FNF:35
FNH:28
DA:12,0
DA:13,0
DA:14,0
DA:20,73
DA:21,73
DA:22,73
DA:29,8
DA:30,8
DA:31,8
DA:33,8
DA:34,8
DA:35,8
DA:37,7
DA:38,8
DA:45,2
DA:46,2
DA:47,2
DA:48,1
DA:49,1
DA:50,1
DA:51,1
DA:53,1
DA:54,1
DA:55,1
DA:57,1
DA:58,2
DA:65,43
DA:66,43
DA:67,43
DA:68,43
DA:69,43
DA:71,23
DA:72,23
DA:73,23
DA:75,23
DA:76,43
DA:80,6
DA:81,6
DA:82,6
DA:89,3
DA:90,3
DA:92,3
DA:93,3
DA:94,3
DA:96,0
DA:98,3
DA:105,32
DA:106,32
DA:107,32
DA:108,32
DA:109,32
DA:111,32
DA:112,78
DA:113,46
DA:114,46
DA:115,46
DA:116,46
DA:119,32
DA:120,32
DA:127,2
DA:128,2
DA:129,2
DA:130,2
DA:131,2
DA:132,2
DA:134,1
DA:135,1
DA:136,1
DA:138,1
DA:139,1
DA:140,1
DA:142,1
DA:143,2
DA:150,1
DA:151,1
DA:152,1
DA:153,1
DA:154,1
DA:156,1
DA:157,1
DA:158,1
DA:159,1
DA:161,1
DA:162,1
DA:163,1
DA:164,1
DA:166,1
DA:167,1
DA:177,12
DA:178,12
DA:179,12
DA:181,12
DA:183,12
DA:184,12
DA:186,12
DA:187,12
DA:188,12
DA:190,12
DA:193,12
DA:194,12
DA:197,12
DA:198,12
DA:201,1
DA:202,1
DA:203,1
DA:205,1
DA:206,1
DA:207,1
DA:208,1
DA:211,1
DA:212,1
DA:213,1
DA:215,1
DA:216,1
DA:217,1
DA:218,1
DA:219,1
DA:222,1
DA:223,1
DA:224,1
DA:226,1
DA:227,1
DA:229,1
DA:230,1
DA:231,1
DA:232,1
DA:235,1
DA:236,1
DA:237,1
DA:239,1
DA:240,1
DA:241,1
DA:242,1
DA:245,1
DA:246,1
DA:247,1
DA:249,1
DA:250,1
DA:251,1
DA:252,1
DA:255,1
DA:256,1
DA:257,1
DA:259,1
DA:260,1
DA:262,1
DA:263,1
DA:264,1
DA:265,2
DA:266,1
DA:267,1
DA:270,1
DA:271,1
DA:272,1
DA:274,1
DA:275,1
DA:276,1
DA:277,1
DA:278,1
DA:281,1
DA:282,1
DA:283,1
DA:285,1
DA:286,1
DA:288,1
DA:289,1
DA:290,1
DA:293,1
DA:294,1
DA:295,1
DA:297,1
DA:298,1
DA:299,1
DA:300,1
DA:303,1
DA:304,1
DA:305,1
DA:307,1
DA:308,1
DA:309,1
DA:310,1
DA:311,1
DA:314,1
DA:315,1
DA:316,1
DA:318,1
DA:319,1
DA:320,1
DA:322,1
DA:323,1
DA:324,1
DA:325,1
DA:328,1
DA:329,1
DA:330,1
DA:332,1
DA:333,1
DA:334,1
DA:335,1
BRF:0
BRH:0
LF:211
LH:201
end_of_record
SF:/home/quinten/Documents/Software_Development/muster/src/git/diff.rs
FN:128,_RNCNCNvMs_NtNtCs3bOdyUEi4qt_6muster3git4diffNtB8_9Generator10parse_diff00Bc_
FN:135,_RNCNCNvMs_NtNtCs3bOdyUEi4qt_6muster3git4diffNtB8_9Generator10parse_diff0s0_0Bc_
FN:134,_RNCNCNvMs_NtNtCs3bOdyUEi4qt_6muster3git4diffNtB8_9Generator10parse_diff0s_0Bc_
FN:124,_RNCNvMs_NtNtCs3bOdyUEi4qt_6muster3git4diffNtB6_9Generator10parse_diff0Ba_
FN:67,_RNCNvMs_NtNtCs3bOdyUEi4qt_6muster3git4diffNtB6_9Generator11uncommitted0Ba_
FN:89,_RNCNvMs_NtNtCs3bOdyUEi4qt_6muster3git4diffNtB6_9Generator15between_commits0Ba_
FN:96,_RNCNvMs_NtNtCs3bOdyUEi4qt_6muster3git4diffNtB6_9Generator15between_commitss_0Ba_
FN:50,_RNCNvMs_NtNtCs3bOdyUEi4qt_6muster3git4diffNtB6_9Generator6staged0Ba_
FN:219,_RNvMs0_NtNtCs3bOdyUEi4qt_6muster3git4diffNtB5_10FileChange17to_string_colored
FN:121,_RNvMs_NtNtCs3bOdyUEi4qt_6muster3git4diffNtB4_9Generator10parse_diff
FN:116,_RNvMs_NtNtCs3bOdyUEi4qt_6muster3git4diffNtB4_9Generator11branch_diff
FN:192,_RNvMs_NtNtCs3bOdyUEi4qt_6muster3git4diffNtB4_9Generator11has_changes
FN:65,_RNvMs_NtNtCs3bOdyUEi4qt_6muster3git4diffNtB4_9Generator11uncommitted
FN:85,_RNvMs_NtNtCs3bOdyUEi4qt_6muster3git4diffNtB4_9Generator15between_commits
FN:22,_RNvMs_NtNtCs3bOdyUEi4qt_6muster3git4diffNtB4_9Generator3new
FN:48,_RNvMs_NtNtCs3bOdyUEi4qt_6muster3git4diffNtB4_9Generator6staged
FN:174,_RNvMs_NtNtCs3bOdyUEi4qt_6muster3git4diffNtB4_9Generator7summary
FN:31,_RNvMs_NtNtCs3bOdyUEi4qt_6muster3git4diffNtB4_9Generator8unstaged
FN:295,_RNvNtNtCs3bOdyUEi4qt_6muster3git4diff15delta_to_status
FN:14,_RNvXNtNtCs3bOdyUEi4qt_6muster3git4diffNtB2_9GeneratorNtNtCs4Vq2ZLagKfv_4core3fmt5Debug3fmt
FN:279,_RNvXs1_NtNtCs3bOdyUEi4qt_6muster3git4diffNtB5_10FileStatusNtNtCs4Vq2ZLagKfv_4core3fmt7Display3fmt
FN:320,_RNvXs2_NtNtCs3bOdyUEi4qt_6muster3git4diffNtB5_7SummaryNtNtCs4Vq2ZLagKfv_4core3fmt7Display3fmt
FN:128,_RNCNCNvMs_NtNtCs5Hx9zLFZsDi_6muster3git4diffNtB8_9Generator10parse_diff00Bc_
FN:135,_RNCNCNvMs_NtNtCs5Hx9zLFZsDi_6muster3git4diffNtB8_9Generator10parse_diff0s0_0Bc_
FN:134,_RNCNCNvMs_NtNtCs5Hx9zLFZsDi_6muster3git4diffNtB8_9Generator10parse_diff0s_0Bc_
FN:124,_RNCNvMs_NtNtCs5Hx9zLFZsDi_6muster3git4diffNtB6_9Generator10parse_diff0Ba_
FN:67,_RNCNvMs_NtNtCs5Hx9zLFZsDi_6muster3git4diffNtB6_9Generator11uncommitted0Ba_
FN:89,_RNCNvMs_NtNtCs5Hx9zLFZsDi_6muster3git4diffNtB6_9Generator15between_commits0Ba_
FN:96,_RNCNvMs_NtNtCs5Hx9zLFZsDi_6muster3git4diffNtB6_9Generator15between_commitss_0Ba_
FN:50,_RNCNvMs_NtNtCs5Hx9zLFZsDi_6muster3git4diffNtB6_9Generator6staged0Ba_
FN:219,_RNvMs0_NtNtCs5Hx9zLFZsDi_6muster3git4diffNtB5_10FileChange17to_string_colored
FN:121,_RNvMs_NtNtCs5Hx9zLFZsDi_6muster3git4diffNtB4_9Generator10parse_diff
FN:192,_RNvMs_NtNtCs5Hx9zLFZsDi_6muster3git4diffNtB4_9Generator11has_changes
FN:65,_RNvMs_NtNtCs5Hx9zLFZsDi_6muster3git4diffNtB4_9Generator11uncommitted
FN:85,_RNvMs_NtNtCs5Hx9zLFZsDi_6muster3git4diffNtB4_9Generator15between_commits
FN:22,_RNvMs_NtNtCs5Hx9zLFZsDi_6muster3git4diffNtB4_9Generator3new
FN:48,_RNvMs_NtNtCs5Hx9zLFZsDi_6muster3git4diffNtB4_9Generator6staged
FN:174,_RNvMs_NtNtCs5Hx9zLFZsDi_6muster3git4diffNtB4_9Generator7summary
FN:31,_RNvMs_NtNtCs5Hx9zLFZsDi_6muster3git4diffNtB4_9Generator8unstaged
FN:295,_RNvNtNtCs5Hx9zLFZsDi_6muster3git4diff15delta_to_status
FN:336,_RNvNtNtNtCs5Hx9zLFZsDi_6muster3git4diff5tests26init_test_repo_with_commit
FN:416,_RNvNtNtNtCs5Hx9zLFZsDi_6muster3git4diff5testss_12test_summary
FN:359,_RNvNtNtNtCs5Hx9zLFZsDi_6muster3git4diff5testss_15test_no_changes
FN:385,_RNvNtNtNtCs5Hx9zLFZsDi_6muster3git4diff5testss_19test_staged_changes
FN:490,_RNvNtNtNtCs5Hx9zLFZsDi_6muster3git4diff5testss_20test_between_commits
FN:524,_RNvNtNtNtCs5Hx9zLFZsDi_6muster3git4diff5testss_20test_delta_to_status
FN:430,_RNvNtNtNtCs5Hx9zLFZsDi_6muster3git4diff5testss_20test_summary_display
FN:370,_RNvNtNtNtCs5Hx9zLFZsDi_6muster3git4diff5testss_21test_unstaged_changes
FN:478,_RNvNtNtNtCs5Hx9zLFZsDi_6muster3git4diff5testss_23test_line_diff_equality
FN:456,_RNvNtNtNtCs5Hx9zLFZsDi_6muster3git4diff5testss_24test_file_diff_to_string
FN:444,_RNvNtNtNtCs5Hx9zLFZsDi_6muster3git4diff5testss_24test_file_status_display
FN:403,_RNvNtNtNtCs5Hx9zLFZsDi_6muster3git4diff5testss_24test_uncommitted_changes
FN:514,_RNvNtNtNtCs5Hx9zLFZsDi_6muster3git4diff5testss_28test_between_commits_invalid
FN:279,_RNvXs1_NtNtCs5Hx9zLFZsDi_6muster3git4diffNtB5_10FileStatusNtNtCs4Vq2ZLagKfv_4core3fmt7Display3fmt
FN:320,_RNvXs2_NtNtCs5Hx9zLFZsDi_6muster3git4diffNtB5_7SummaryNtNtCs4Vq2ZLagKfv_4core3fmt7Display3fmt
FN:116,_RNvMs_NtNtCs5Hx9zLFZsDi_6muster3git4diffNtB4_9Generator11branch_diff
FN:14,_RNvXNtNtCs5Hx9zLFZsDi_6muster3git4diffNtB2_9GeneratorNtNtCs4Vq2ZLagKfv_4core3fmt5Debug3fmt
FNDA:0,_RNCNCNvMs_NtNtCs3bOdyUEi4qt_6muster3git4diffNtB8_9Generator10parse_diff00Bc_
FNDA:0,_RNCNCNvMs_NtNtCs3bOdyUEi4qt_6muster3git4diffNtB8_9Generator10parse_diff0s0_0Bc_
FNDA:0,_RNCNCNvMs_NtNtCs3bOdyUEi4qt_6muster3git4diffNtB8_9Generator10parse_diff0s_0Bc_
FNDA:0,_RNCNvMs_NtNtCs3bOdyUEi4qt_6muster3git4diffNtB6_9Generator10parse_diff0Ba_
FNDA:1,_RNCNvMs_NtNtCs3bOdyUEi4qt_6muster3git4diffNtB6_9Generator11uncommitted0Ba_
FNDA:0,_RNCNvMs_NtNtCs3bOdyUEi4qt_6muster3git4diffNtB6_9Generator15between_commits0Ba_
FNDA:0,_RNCNvMs_NtNtCs3bOdyUEi4qt_6muster3git4diffNtB6_9Generator15between_commitss_0Ba_
FNDA:0,_RNCNvMs_NtNtCs3bOdyUEi4qt_6muster3git4diffNtB6_9Generator6staged0Ba_
FNDA:0,_RNvMs0_NtNtCs3bOdyUEi4qt_6muster3git4diffNtB5_10FileChange17to_string_colored
FNDA:1,_RNvMs_NtNtCs3bOdyUEi4qt_6muster3git4diffNtB4_9Generator10parse_diff
FNDA:0,_RNvMs_NtNtCs3bOdyUEi4qt_6muster3git4diffNtB4_9Generator11branch_diff
FNDA:0,_RNvMs_NtNtCs3bOdyUEi4qt_6muster3git4diffNtB4_9Generator11has_changes
FNDA:1,_RNvMs_NtNtCs3bOdyUEi4qt_6muster3git4diffNtB4_9Generator11uncommitted
FNDA:0,_RNvMs_NtNtCs3bOdyUEi4qt_6muster3git4diffNtB4_9Generator15between_commits
FNDA:1,_RNvMs_NtNtCs3bOdyUEi4qt_6muster3git4diffNtB4_9Generator3new
FNDA:0,_RNvMs_NtNtCs3bOdyUEi4qt_6muster3git4diffNtB4_9Generator6staged
FNDA:0,_RNvMs_NtNtCs3bOdyUEi4qt_6muster3git4diffNtB4_9Generator7summary
FNDA:0,_RNvMs_NtNtCs3bOdyUEi4qt_6muster3git4diffNtB4_9Generator8unstaged
FNDA:0,_RNvNtNtCs3bOdyUEi4qt_6muster3git4diff15delta_to_status
FNDA:0,_RNvXNtNtCs3bOdyUEi4qt_6muster3git4diffNtB2_9GeneratorNtNtCs4Vq2ZLagKfv_4core3fmt5Debug3fmt
FNDA:0,_RNvXs1_NtNtCs3bOdyUEi4qt_6muster3git4diffNtB5_10FileStatusNtNtCs4Vq2ZLagKfv_4core3fmt7Display3fmt
FNDA:0,_RNvXs2_NtNtCs3bOdyUEi4qt_6muster3git4diffNtB5_7SummaryNtNtCs4Vq2ZLagKfv_4core3fmt7Display3fmt
FNDA:0,_RNCNCNvMs_NtNtCs5Hx9zLFZsDi_6muster3git4diffNtB8_9Generator10parse_diff00Bc_
FNDA:5,_RNCNCNvMs_NtNtCs5Hx9zLFZsDi_6muster3git4diffNtB8_9Generator10parse_diff0s0_0Bc_
FNDA:16,_RNCNCNvMs_NtNtCs5Hx9zLFZsDi_6muster3git4diffNtB8_9Generator10parse_diff0s_0Bc_
FNDA:21,_RNCNvMs_NtNtCs5Hx9zLFZsDi_6muster3git4diffNtB6_9Generator10parse_diff0Ba_
FNDA:3,_RNCNvMs_NtNtCs5Hx9zLFZsDi_6muster3git4diffNtB6_9Generator11uncommitted0Ba_
FNDA:1,_RNCNvMs_NtNtCs5Hx9zLFZsDi_6muster3git4diffNtB6_9Generator15between_commits0Ba_
FNDA:0,_RNCNvMs_NtNtCs5Hx9zLFZsDi_6muster3git4diffNtB6_9Generator15between_commitss_0Ba_
FNDA:1,_RNCNvMs_NtNtCs5Hx9zLFZsDi_6muster3git4diffNtB6_9Generator6staged0Ba_
FNDA:1,_RNvMs0_NtNtCs5Hx9zLFZsDi_6muster3git4diffNtB5_10FileChange17to_string_colored
FNDA:6,_RNvMs_NtNtCs5Hx9zLFZsDi_6muster3git4diffNtB4_9Generator10parse_diff
FNDA:2,_RNvMs_NtNtCs5Hx9zLFZsDi_6muster3git4diffNtB4_9Generator11has_changes
FNDA:3,_RNvMs_NtNtCs5Hx9zLFZsDi_6muster3git4diffNtB4_9Generator11uncommitted
FNDA:2,_RNvMs_NtNtCs5Hx9zLFZsDi_6muster3git4diffNtB4_9Generator15between_commits
FNDA:7,_RNvMs_NtNtCs5Hx9zLFZsDi_6muster3git4diffNtB4_9Generator3new
FNDA:1,_RNvMs_NtNtCs5Hx9zLFZsDi_6muster3git4diffNtB4_9Generator6staged
FNDA:1,_RNvMs_NtNtCs5Hx9zLFZsDi_6muster3git4diffNtB4_9Generator7summary
FNDA:1,_RNvMs_NtNtCs5Hx9zLFZsDi_6muster3git4diffNtB4_9Generator8unstaged
FNDA:13,_RNvNtNtCs5Hx9zLFZsDi_6muster3git4diff15delta_to_status
FNDA:7,_RNvNtNtNtCs5Hx9zLFZsDi_6muster3git4diff5tests26init_test_repo_with_commit
FNDA:1,_RNvNtNtNtCs5Hx9zLFZsDi_6muster3git4diff5testss_12test_summary
FNDA:1,_RNvNtNtNtCs5Hx9zLFZsDi_6muster3git4diff5testss_15test_no_changes
FNDA:1,_RNvNtNtNtCs5Hx9zLFZsDi_6muster3git4diff5testss_19test_staged_changes
FNDA:1,_RNvNtNtNtCs5Hx9zLFZsDi_6muster3git4diff5testss_20test_between_commits
FNDA:1,_RNvNtNtNtCs5Hx9zLFZsDi_6muster3git4diff5testss_20test_delta_to_status
FNDA:1,_RNvNtNtNtCs5Hx9zLFZsDi_6muster3git4diff5testss_20test_summary_display
FNDA:1,_RNvNtNtNtCs5Hx9zLFZsDi_6muster3git4diff5testss_21test_unstaged_changes
FNDA:1,_RNvNtNtNtCs5Hx9zLFZsDi_6muster3git4diff5testss_23test_line_diff_equality
FNDA:1,_RNvNtNtNtCs5Hx9zLFZsDi_6muster3git4diff5testss_24test_file_diff_to_string
FNDA:1,_RNvNtNtNtCs5Hx9zLFZsDi_6muster3git4diff5testss_24test_file_status_display
FNDA:1,_RNvNtNtNtCs5Hx9zLFZsDi_6muster3git4diff5testss_24test_uncommitted_changes
FNDA:1,_RNvNtNtNtCs5Hx9zLFZsDi_6muster3git4diff5testss_28test_between_commits_invalid
FNDA:8,_RNvXs1_NtNtCs5Hx9zLFZsDi_6muster3git4diffNtB5_10FileStatusNtNtCs4Vq2ZLagKfv_4core3fmt7Display3fmt
FNDA:1,_RNvXs2_NtNtCs5Hx9zLFZsDi_6muster3git4diffNtB5_7SummaryNtNtCs4Vq2ZLagKfv_4core3fmt7Display3fmt
FNDA:0,_RNvMs_NtNtCs5Hx9zLFZsDi_6muster3git4diffNtB4_9Generator11branch_diff
FNDA:0,_RNvXNtNtCs5Hx9zLFZsDi_6muster3git4diffNtB2_9GeneratorNtNtCs4Vq2ZLagKfv_4core3fmt5Debug3fmt
FNF:35
FNH:31
DA:14,0
DA:15,0
DA:16,0
DA:22,8
DA:23,8
DA:24,8
DA:31,1
DA:32,1
DA:33,1
DA:35,1
DA:36,1
DA:37,1
DA:38,1
DA:40,1
DA:41,1
DA:48,1
DA:49,1
DA:50,1
DA:52,1
DA:53,1
DA:54,1
DA:55,1
DA:57,1
DA:58,1
DA:65,4
DA:66,4
DA:67,4
DA:69,4
DA:70,4
DA:72,4
DA:73,4
DA:74,4
DA:75,4
DA:77,4
DA:78,4
DA:85,2
DA:86,2
DA:87,2
DA:88,2
DA:89,2
DA:90,1
DA:91,1
DA:93,1
DA:94,1
DA:95,1
DA:96,1
DA:97,1
DA:98,1
DA:100,1
DA:101,1
DA:103,1
DA:104,1
DA:105,1
DA:106,1
DA:108,1
DA:109,2
DA:116,0
DA:117,0
DA:118,0
DA:121,7
DA:122,7
DA:124,21
DA:125,21
DA:126,21
DA:127,21
DA:128,21
DA:129,21
DA:130,21
DA:132,21
DA:133,21
DA:134,21
DA:135,21
DA:136,5
DA:137,5
DA:138,5
DA:139,5
DA:140,5
DA:141,5
DA:142,5
DA:143,5
DA:144,5
DA:145,21
DA:147,21
DA:148,21
DA:150,7
DA:151,7
DA:154,3
DA:155,3
DA:157,1
DA:158,10
DA:161,11
DA:162,11
DA:163,21
DA:164,7
DA:166,7
DA:167,7
DA:174,1
DA:175,1
DA:177,1
DA:178,1
DA:180,1
DA:181,1
DA:182,1
DA:183,1
DA:184,1
DA:185,1
DA:192,2
DA:193,2
DA:194,2
DA:195,2
DA:196,2
DA:197,2
DA:198,2
DA:219,1
DA:220,1
DA:221,1
DA:222,1
DA:223,1
DA:224,1
DA:225,1
DA:228,4
DA:229,3
DA:230,1
DA:231,1
DA:232,1
DA:233,1
DA:234,1
DA:235,1
DA:236,1
DA:237,1
DA:238,1
DA:242,1
DA:243,1
DA:279,8
DA:280,8
DA:281,1
DA:282,1
DA:283,1
DA:284,1
DA:285,1
DA:286,1
DA:287,1
DA:288,1
DA:290,8
DA:291,8
DA:295,13
DA:296,13
DA:297,2
DA:298,1
DA:299,5
DA:300,1
DA:301,1
DA:302,1
DA:303,1
DA:304,1
DA:306,13
DA:320,1
DA:321,1
DA:322,1
DA:323,1
DA:326,1
DA:336,7
DA:337,7
DA:338,7
DA:340,7
DA:341,7
DA:342,7
DA:344,7
DA:345,7
DA:346,7
DA:348,7
DA:351,7
DA:352,7
DA:355,7
DA:356,7
DA:359,1
DA:360,1
DA:361,1
DA:363,1
DA:364,1
DA:365,1
DA:366,1
DA:367,1
DA:370,1
DA:371,1
DA:372,1
DA:374,1
DA:375,1
DA:377,1
DA:378,1
DA:379,1
DA:380,1
DA:381,1
DA:382,1
DA:385,1
DA:386,1
DA:387,1
DA:389,1
DA:390,1
DA:392,1
DA:393,1
DA:394,1
DA:396,1
DA:397,1
DA:398,1
DA:399,1
DA:400,1
DA:403,1
DA:404,1
DA:405,1
DA:407,1
DA:408,1
DA:410,1
DA:411,1
DA:412,1
DA:413,1
DA:416,1
DA:417,1
DA:418,1
DA:420,1
DA:421,1
DA:423,1
DA:424,1
DA:425,1
DA:426,1
DA:427,1
DA:430,1
DA:431,1
DA:432,1
DA:433,1
DA:434,1
DA:435,1
DA:437,1
DA:438,1
DA:439,1
DA:440,1
DA:441,1
DA:444,1
DA:445,1
DA:446,1
DA:447,1
DA:448,1
DA:449,1
DA:450,1
DA:451,1
DA:452,1
DA:453,1
DA:456,1
DA:457,1
DA:458,1
DA:459,1
DA:460,1
DA:461,1
DA:462,1
DA:463,1
DA:464,1
DA:465,1
DA:466,1
DA:467,1
DA:469,1
DA:470,1
DA:471,1
DA:472,1
DA:473,1
DA:474,1
DA:475,1
DA:478,1
DA:479,1
DA:480,1
DA:481,1
DA:483,1
DA:484,1
DA:485,1
DA:487,1
DA:490,1
DA:491,1
DA:493,1
DA:494,1
DA:495,1
DA:497,1
DA:498,1
DA:499,1
DA:501,1
DA:502,1
DA:503,1
DA:505,1
DA:507,1
DA:508,1
DA:509,1
DA:510,1
DA:511,1
DA:514,1
DA:515,1
DA:516,1
DA:518,1
DA:519,1
DA:520,1
DA:521,1
DA:524,1
DA:525,1
DA:526,1
DA:527,1
DA:528,1
DA:529,1
DA:530,1
DA:531,1
DA:532,1
DA:533,1
BRF:0
BRH:0
LF:316
LH:308
end_of_record
SF:/home/quinten/Documents/Software_Development/muster/src/git/mod.rs
FN:22,_RNCNvNtCs3bOdyUEi4qt_6muster3git15open_repository0B5_
FN:20,_RNvNtCs3bOdyUEi4qt_6muster3git15open_repository
FN:36,_RNvNtCs3bOdyUEi4qt_6muster3git15repository_root
FN:27,_RNvNtCs3bOdyUEi4qt_6muster3git17is_git_repository
FN:22,_RNCNvNtCs5Hx9zLFZsDi_6muster3git15open_repository0B5_
FN:20,_RNvNtCs5Hx9zLFZsDi_6muster3git15open_repository
FN:36,_RNvNtCs5Hx9zLFZsDi_6muster3git15repository_root
FN:27,_RNvNtCs5Hx9zLFZsDi_6muster3git17is_git_repository
FN:48,_RNvNtNtCs5Hx9zLFZsDi_6muster3git5tests14init_test_repo
FN:65,_RNvNtNtCs5Hx9zLFZsDi_6muster3git5testss_20test_open_repository
FN:75,_RNvNtNtCs5Hx9zLFZsDi_6muster3git5testss_20test_repository_root
FN:55,_RNvNtNtCs5Hx9zLFZsDi_6muster3git5testss_22test_is_git_repository
FNDA:0,_RNCNvNtCs3bOdyUEi4qt_6muster3git15open_repository0B5_
FNDA:26,_RNvNtCs3bOdyUEi4qt_6muster3git15open_repository
FNDA:0,_RNvNtCs3bOdyUEi4qt_6muster3git15repository_root
FNDA:0,_RNvNtCs3bOdyUEi4qt_6muster3git17is_git_repository
FNDA:2,_RNCNvNtCs5Hx9zLFZsDi_6muster3git15open_repository0B5_
FNDA:6,_RNvNtCs5Hx9zLFZsDi_6muster3git15open_repository
FNDA:1,_RNvNtCs5Hx9zLFZsDi_6muster3git15repository_root
FNDA:2,_RNvNtCs5Hx9zLFZsDi_6muster3git17is_git_repository
FNDA:3,_RNvNtNtCs5Hx9zLFZsDi_6muster3git5tests14init_test_repo
FNDA:1,_RNvNtNtCs5Hx9zLFZsDi_6muster3git5testss_20test_open_repository
FNDA:1,_RNvNtNtCs5Hx9zLFZsDi_6muster3git5testss_20test_repository_root
FNDA:1,_RNvNtNtCs5Hx9zLFZsDi_6muster3git5testss_22test_is_git_repository
FNF:8
FNH:8
DA:20,32
DA:21,32
DA:22,32
DA:23,32
DA:27,2
DA:28,2
DA:29,2
DA:36,1
DA:37,1
DA:38,1
DA:39,1
DA:40,1
DA:41,1
DA:48,3
DA:49,3
DA:50,3
DA:51,3
DA:52,3
DA:55,1
DA:56,1
DA:57,1
DA:59,1
DA:60,1
DA:61,1
DA:62,1
DA:65,1
DA:66,1
DA:67,1
DA:69,1
DA:70,1
DA:71,1
DA:72,1
DA:75,1
DA:76,1
DA:77,1
DA:78,1
DA:79,1
DA:80,1
BRF:0
BRH:0
LF:39
LH:39
end_of_record
SF:/home/quinten/Documents/Software_Development/muster/src/git/worktree.rs
FN:66,_RNCNvMs_NtNtCs3bOdyUEi4qt_6muster3git8worktreeNtB6_7Manager22create_with_new_branch0Ba_
FN:90,_RNCNvMs_NtNtCs3bOdyUEi4qt_6muster3git8worktreeNtB6_7Manager22create_with_new_branchs0_0Ba_
FN:77,_RNCNvMs_NtNtCs3bOdyUEi4qt_6muster3git8worktreeNtB6_7Manager22create_with_new_branchs_0Ba_
FN:171,_RNCNvMs_NtNtCs3bOdyUEi4qt_6muster3git8worktreeNtB6_7Manager4lock0Ba_
FN:175,_RNCNvMs_NtNtCs3bOdyUEi4qt_6muster3git8worktreeNtB6_7Manager4locks_0Ba_
FN:33,_RNCNvMs_NtNtCs3bOdyUEi4qt_6muster3git8worktreeNtB6_7Manager6create0Ba_
FN:54,_RNCNvMs_NtNtCs3bOdyUEi4qt_6muster3git8worktreeNtB6_7Manager6creates0_0Ba_
FN:41,_RNCNvMs_NtNtCs3bOdyUEi4qt_6muster3git8worktreeNtB6_7Manager6creates_0Ba_
FN:190,_RNCNvMs_NtNtCs3bOdyUEi4qt_6muster3git8worktreeNtB6_7Manager6unlock0Ba_
FN:202,_RNCNvMs_NtNtCs3bOdyUEi4qt_6muster3git8worktreeNtB6_7Manager6unlocks_0Ba_
FN:217,_RNCNvMs_NtNtCs3bOdyUEi4qt_6muster3git8worktreeNtB6_7Manager8validate0Ba_
FN:221,_RNCNvMs_NtNtCs3bOdyUEi4qt_6muster3git8worktreeNtB6_7Manager8validates_0Ba_
FN:64,_RNvMs_NtNtCs3bOdyUEi4qt_6muster3git8worktreeNtB4_7Manager22create_with_new_branch
FN:22,_RNvMs_NtNtCs3bOdyUEi4qt_6muster3git8worktreeNtB4_7Manager3new
FN:136,_RNvMs_NtNtCs3bOdyUEi4qt_6muster3git8worktreeNtB4_7Manager4list
FN:166,_RNvMs_NtNtCs3bOdyUEi4qt_6muster3git8worktreeNtB4_7Manager4lock
FN:31,_RNvMs_NtNtCs3bOdyUEi4qt_6muster3git8worktreeNtB4_7Manager6create
FN:156,_RNvMs_NtNtCs3bOdyUEi4qt_6muster3git8worktreeNtB4_7Manager6exists
FN:104,_RNvMs_NtNtCs3bOdyUEi4qt_6muster3git8worktreeNtB4_7Manager6remove
FN:185,_RNvMs_NtNtCs3bOdyUEi4qt_6muster3git8worktreeNtB4_7Manager6unlock
FN:212,_RNvMs_NtNtCs3bOdyUEi4qt_6muster3git8worktreeNtB4_7Manager8validate
FN:14,_RNvXNtNtCs3bOdyUEi4qt_6muster3git8worktreeNtB2_7ManagerNtNtCs4Vq2ZLagKfv_4core3fmt5Debug3fmt
FN:66,_RNCNvMs_NtNtCs5Hx9zLFZsDi_6muster3git8worktreeNtB6_7Manager22create_with_new_branch0Ba_
FN:90,_RNCNvMs_NtNtCs5Hx9zLFZsDi_6muster3git8worktreeNtB6_7Manager22create_with_new_branchs0_0Ba_
FN:77,_RNCNvMs_NtNtCs5Hx9zLFZsDi_6muster3git8worktreeNtB6_7Manager22create_with_new_branchs_0Ba_
FN:171,_RNCNvMs_NtNtCs5Hx9zLFZsDi_6muster3git8worktreeNtB6_7Manager4lock0Ba_
FN:175,_RNCNvMs_NtNtCs5Hx9zLFZsDi_6muster3git8worktreeNtB6_7Manager4locks_0Ba_
FN:33,_RNCNvMs_NtNtCs5Hx9zLFZsDi_6muster3git8worktreeNtB6_7Manager6create0Ba_
FN:54,_RNCNvMs_NtNtCs5Hx9zLFZsDi_6muster3git8worktreeNtB6_7Manager6creates0_0Ba_
FN:41,_RNCNvMs_NtNtCs5Hx9zLFZsDi_6muster3git8worktreeNtB6_7Manager6creates_0Ba_
FN:190,_RNCNvMs_NtNtCs5Hx9zLFZsDi_6muster3git8worktreeNtB6_7Manager6unlock0Ba_
FN:202,_RNCNvMs_NtNtCs5Hx9zLFZsDi_6muster3git8worktreeNtB6_7Manager6unlocks_0Ba_
FN:217,_RNCNvMs_NtNtCs5Hx9zLFZsDi_6muster3git8worktreeNtB6_7Manager8validate0Ba_
FN:221,_RNCNvMs_NtNtCs5Hx9zLFZsDi_6muster3git8worktreeNtB6_7Manager8validates_0Ba_
FN:381,_RNCNvNtNtNtCs5Hx9zLFZsDi_6muster3git8worktree5testss_19test_list_worktrees0B9_
FN:412,_RNCNvNtNtNtCs5Hx9zLFZsDi_6muster3git8worktree5testss_20test_lock_and_unlock0B9_
FN:421,_RNCNvNtNtNtCs5Hx9zLFZsDi_6muster3git8worktree5testss_20test_lock_and_unlocks_0B9_
FN:64,_RNvMs_NtNtCs5Hx9zLFZsDi_6muster3git8worktreeNtB4_7Manager22create_with_new_branch
FN:22,_RNvMs_NtNtCs5Hx9zLFZsDi_6muster3git8worktreeNtB4_7Manager3new
FN:136,_RNvMs_NtNtCs5Hx9zLFZsDi_6muster3git8worktreeNtB4_7Manager4list
FN:166,_RNvMs_NtNtCs5Hx9zLFZsDi_6muster3git8worktreeNtB4_7Manager4lock
FN:31,_RNvMs_NtNtCs5Hx9zLFZsDi_6muster3git8worktreeNtB4_7Manager6create
FN:156,_RNvMs_NtNtCs5Hx9zLFZsDi_6muster3git8worktreeNtB4_7Manager6exists
FN:104,_RNvMs_NtNtCs5Hx9zLFZsDi_6muster3git8worktreeNtB4_7Manager6remove
FN:185,_RNvMs_NtNtCs5Hx9zLFZsDi_6muster3git8worktreeNtB4_7Manager6unlock
FN:212,_RNvMs_NtNtCs5Hx9zLFZsDi_6muster3git8worktreeNtB4_7Manager8validate
FN:244,_RNvNtNtNtCs5Hx9zLFZsDi_6muster3git8worktree5tests26init_test_repo_with_commit
FN:386,_RNvNtNtNtCs5Hx9zLFZsDi_6muster3git8worktree5testss_11test_exists
FN:441,_RNvNtNtNtCs5Hx9zLFZsDi_6muster3git8worktree5testss_13test_validate
FN:496,_RNvNtNtNtCs5Hx9zLFZsDi_6muster3git8worktree5testss_18test_worktree_info
FN:373,_RNvNtNtNtCs5Hx9zLFZsDi_6muster3git8worktree5testss_19test_list_worktrees
FN:400,_RNvNtNtNtCs5Hx9zLFZsDi_6muster3git8worktree5testss_20test_lock_and_unlock
FN:307,_RNvNtNtNtCs5Hx9zLFZsDi_6muster3git8worktree5testss_20test_remove_worktree
FN:428,_RNvNtNtNtCs5Hx9zLFZsDi_6muster3git8worktree5testss_22test_unlock_not_locked
FN:322,_RNvNtNtNtCs5Hx9zLFZsDi_6muster3git8worktree5testss_23test_remove_nonexistent
FN:280,_RNvNtNtNtCs5Hx9zLFZsDi_6muster3git8worktree5testss_27test_create_existing_branch
FN:267,_RNvNtNtNtCs5Hx9zLFZsDi_6muster3git8worktree5testss_27test_create_with_new_branch
FN:453,_RNvNtNtNtCs5Hx9zLFZsDi_6muster3git8worktree5testss_29test_branch_name_with_slashes
FN:296,_RNvNtNtNtCs5Hx9zLFZsDi_6muster3git8worktree5testss_30test_create_nonexistent_branch
FN:333,_RNvNtNtNtCs5Hx9zLFZsDi_6muster3git8worktree5testss_53test_remove_with_missing_worktree_but_existing_branch
FN:14,_RNvXNtNtCs5Hx9zLFZsDi_6muster3git8worktreeNtB2_7ManagerNtNtCs4Vq2ZLagKfv_4core3fmt5Debug3fmt
FNDA:0,_RNCNvMs_NtNtCs3bOdyUEi4qt_6muster3git8worktreeNtB6_7Manager22create_with_new_branch0Ba_
FNDA:0,_RNCNvMs_NtNtCs3bOdyUEi4qt_6muster3git8worktreeNtB6_7Manager22create_with_new_branchs0_0Ba_
FNDA:0,_RNCNvMs_NtNtCs3bOdyUEi4qt_6muster3git8worktreeNtB6_7Manager22create_with_new_branchs_0Ba_
FNDA:0,_RNCNvMs_NtNtCs3bOdyUEi4qt_6muster3git8worktreeNtB6_7Manager4lock0Ba_
FNDA:0,_RNCNvMs_NtNtCs3bOdyUEi4qt_6muster3git8worktreeNtB6_7Manager4locks_0Ba_
FNDA:0,_RNCNvMs_NtNtCs3bOdyUEi4qt_6muster3git8worktreeNtB6_7Manager6create0Ba_
FNDA:0,_RNCNvMs_NtNtCs3bOdyUEi4qt_6muster3git8worktreeNtB6_7Manager6creates0_0Ba_
FNDA:0,_RNCNvMs_NtNtCs3bOdyUEi4qt_6muster3git8worktreeNtB6_7Manager6creates_0Ba_
FNDA:0,_RNCNvMs_NtNtCs3bOdyUEi4qt_6muster3git8worktreeNtB6_7Manager6unlock0Ba_
FNDA:0,_RNCNvMs_NtNtCs3bOdyUEi4qt_6muster3git8worktreeNtB6_7Manager6unlocks_0Ba_
FNDA:0,_RNCNvMs_NtNtCs3bOdyUEi4qt_6muster3git8worktreeNtB6_7Manager8validate0Ba_
FNDA:0,_RNCNvMs_NtNtCs3bOdyUEi4qt_6muster3git8worktreeNtB6_7Manager8validates_0Ba_
FNDA:20,_RNvMs_NtNtCs3bOdyUEi4qt_6muster3git8worktreeNtB4_7Manager22create_with_new_branch
FNDA:57,_RNvMs_NtNtCs3bOdyUEi4qt_6muster3git8worktreeNtB4_7Manager3new
FNDA:31,_RNvMs_NtNtCs3bOdyUEi4qt_6muster3git8worktreeNtB4_7Manager4list
FNDA:0,_RNvMs_NtNtCs3bOdyUEi4qt_6muster3git8worktreeNtB4_7Manager4lock
FNDA:0,_RNvMs_NtNtCs3bOdyUEi4qt_6muster3git8worktreeNtB4_7Manager6create
FNDA:17,_RNvMs_NtNtCs3bOdyUEi4qt_6muster3git8worktreeNtB4_7Manager6exists
FNDA:20,_RNvMs_NtNtCs3bOdyUEi4qt_6muster3git8worktreeNtB4_7Manager6remove
FNDA:0,_RNvMs_NtNtCs3bOdyUEi4qt_6muster3git8worktreeNtB4_7Manager6unlock
FNDA:0,_RNvMs_NtNtCs3bOdyUEi4qt_6muster3git8worktreeNtB4_7Manager8validate
FNDA:0,_RNvXNtNtCs3bOdyUEi4qt_6muster3git8worktreeNtB2_7ManagerNtNtCs4Vq2ZLagKfv_4core3fmt5Debug3fmt
FNDA:0,_RNCNvMs_NtNtCs5Hx9zLFZsDi_6muster3git8worktreeNtB6_7Manager22create_with_new_branch0Ba_
FNDA:0,_RNCNvMs_NtNtCs5Hx9zLFZsDi_6muster3git8worktreeNtB6_7Manager22create_with_new_branchs0_0Ba_
FNDA:0,_RNCNvMs_NtNtCs5Hx9zLFZsDi_6muster3git8worktreeNtB6_7Manager22create_with_new_branchs_0Ba_
FNDA:0,_RNCNvMs_NtNtCs5Hx9zLFZsDi_6muster3git8worktreeNtB6_7Manager4lock0Ba_
FNDA:0,_RNCNvMs_NtNtCs5Hx9zLFZsDi_6muster3git8worktreeNtB6_7Manager4locks_0Ba_
FNDA:0,_RNCNvMs_NtNtCs5Hx9zLFZsDi_6muster3git8worktreeNtB6_7Manager6create0Ba_
FNDA:0,_RNCNvMs_NtNtCs5Hx9zLFZsDi_6muster3git8worktreeNtB6_7Manager6creates0_0Ba_
FNDA:1,_RNCNvMs_NtNtCs5Hx9zLFZsDi_6muster3git8worktreeNtB6_7Manager6creates_0Ba_
FNDA:0,_RNCNvMs_NtNtCs5Hx9zLFZsDi_6muster3git8worktreeNtB6_7Manager6unlock0Ba_
FNDA:0,_RNCNvMs_NtNtCs5Hx9zLFZsDi_6muster3git8worktreeNtB6_7Manager6unlocks_0Ba_
FNDA:0,_RNCNvMs_NtNtCs5Hx9zLFZsDi_6muster3git8worktreeNtB6_7Manager8validate0Ba_
FNDA:0,_RNCNvMs_NtNtCs5Hx9zLFZsDi_6muster3git8worktreeNtB6_7Manager8validates_0Ba_
FNDA:1,_RNCNvNtNtNtCs5Hx9zLFZsDi_6muster3git8worktree5testss_19test_list_worktrees0B9_
FNDA:1,_RNCNvNtNtNtCs5Hx9zLFZsDi_6muster3git8worktree5testss_20test_lock_and_unlock0B9_
FNDA:1,_RNCNvNtNtNtCs5Hx9zLFZsDi_6muster3git8worktree5testss_20test_lock_and_unlocks_0B9_
FNDA:9,_RNvMs_NtNtCs5Hx9zLFZsDi_6muster3git8worktreeNtB4_7Manager22create_with_new_branch
FNDA:16,_RNvMs_NtNtCs5Hx9zLFZsDi_6muster3git8worktreeNtB4_7Manager3new
FNDA:3,_RNvMs_NtNtCs5Hx9zLFZsDi_6muster3git8worktreeNtB4_7Manager4list
FNDA:1,_RNvMs_NtNtCs5Hx9zLFZsDi_6muster3git8worktreeNtB4_7Manager4lock
FNDA:2,_RNvMs_NtNtCs5Hx9zLFZsDi_6muster3git8worktreeNtB4_7Manager6create
FNDA:7,_RNvMs_NtNtCs5Hx9zLFZsDi_6muster3git8worktreeNtB4_7Manager6exists
FNDA:8,_RNvMs_NtNtCs5Hx9zLFZsDi_6muster3git8worktreeNtB4_7Manager6remove
FNDA:2,_RNvMs_NtNtCs5Hx9zLFZsDi_6muster3git8worktreeNtB4_7Manager6unlock
FNDA:2,_RNvMs_NtNtCs5Hx9zLFZsDi_6muster3git8worktreeNtB4_7Manager8validate
FNDA:12,_RNvNtNtNtCs5Hx9zLFZsDi_6muster3git8worktree5tests26init_test_repo_with_commit
FNDA:1,_RNvNtNtNtCs5Hx9zLFZsDi_6muster3git8worktree5testss_11test_exists
FNDA:1,_RNvNtNtNtCs5Hx9zLFZsDi_6muster3git8worktree5testss_13test_validate
FNDA:1,_RNvNtNtNtCs5Hx9zLFZsDi_6muster3git8worktree5testss_18test_worktree_info
FNDA:1,_RNvNtNtNtCs5Hx9zLFZsDi_6muster3git8worktree5testss_19test_list_worktrees
FNDA:1,_RNvNtNtNtCs5Hx9zLFZsDi_6muster3git8worktree5testss_20test_lock_and_unlock
FNDA:1,_RNvNtNtNtCs5Hx9zLFZsDi_6muster3git8worktree5testss_20test_remove_worktree
FNDA:1,_RNvNtNtNtCs5Hx9zLFZsDi_6muster3git8worktree5testss_22test_unlock_not_locked
FNDA:1,_RNvNtNtNtCs5Hx9zLFZsDi_6muster3git8worktree5testss_23test_remove_nonexistent
FNDA:1,_RNvNtNtNtCs5Hx9zLFZsDi_6muster3git8worktree5testss_27test_create_existing_branch
FNDA:1,_RNvNtNtNtCs5Hx9zLFZsDi_6muster3git8worktree5testss_27test_create_with_new_branch
FNDA:1,_RNvNtNtNtCs5Hx9zLFZsDi_6muster3git8worktree5testss_29test_branch_name_with_slashes
FNDA:1,_RNvNtNtNtCs5Hx9zLFZsDi_6muster3git8worktree5testss_30test_create_nonexistent_branch
FNDA:1,_RNvNtNtNtCs5Hx9zLFZsDi_6muster3git8worktree5testss_53test_remove_with_missing_worktree_but_existing_branch
FNDA:0,_RNvXNtNtCs5Hx9zLFZsDi_6muster3git8worktreeNtB2_7ManagerNtNtCs4Vq2ZLagKfv_4core3fmt5Debug3fmt
FNF:39
FNH:27
DA:14,0
DA:15,0
DA:16,0
DA:22,73
DA:23,73
DA:24,73
DA:31,2
DA:32,2
DA:33,2
DA:34,0
DA:35,0
DA:36,0
DA:38,2
DA:39,2
DA:40,2
DA:41,2
DA:43,1
DA:46,1
DA:48,1
DA:49,1
DA:50,1
DA:51,1
DA:52,1
DA:54,1
DA:56,1
DA:57,2
DA:64,29
DA:65,29
DA:66,29
DA:67,0
DA:68,0
DA:69,0
DA:71,29
DA:72,29
DA:74,29
DA:75,29
DA:76,29
DA:77,29
DA:79,29
DA:82,29
DA:84,29
DA:85,29
DA:86,29
DA:87,29
DA:88,29
DA:90,29
DA:92,29
DA:93,29
DA:104,28
DA:106,28
DA:109,28
DA:110,21
DA:112,21
DA:113,21
DA:114,21
DA:115,21
DA:116,21
DA:118,21
DA:119,0
DA:120,21
DA:121,7
DA:125,28
DA:126,28
DA:128,28
DA:129,28
DA:136,34
DA:137,34
DA:139,34
DA:140,34
DA:141,15
DA:142,15
DA:143,15
DA:144,15
DA:145,15
DA:146,15
DA:147,15
DA:148,0
DA:151,34
DA:152,34
DA:156,24
DA:157,24
DA:158,24
DA:159,24
DA:166,1
DA:167,1
DA:168,1
DA:169,1
DA:170,1
DA:171,1
DA:173,1
DA:174,1
DA:175,1
DA:177,1
DA:178,1
DA:185,2
DA:186,2
DA:187,2
DA:188,2
DA:189,2
DA:190,2
DA:192,2
DA:193,2
DA:196,2
DA:197,1
DA:198,1
DA:200,1
DA:201,1
DA:202,1
DA:204,1
DA:205,2
DA:212,2
DA:213,2
DA:214,2
DA:215,2
DA:216,2
DA:217,2
DA:219,2
DA:220,2
DA:221,2
DA:223,2
DA:224,2
DA:244,12
DA:245,12
DA:246,12
DA:248,12
DA:249,12
DA:250,12
DA:252,12
DA:253,12
DA:254,12
DA:256,12
DA:259,12
DA:260,12
DA:263,12
DA:264,12
DA:267,1
DA:268,1
DA:269,1
DA:271,1
DA:272,1
DA:274,1
DA:275,1
DA:276,1
DA:277,1
DA:280,1
DA:281,1
DA:283,1
DA:284,1
DA:285,1
DA:287,1
DA:288,1
DA:289,1
DA:291,1
DA:292,1
DA:293,1
DA:296,1
DA:297,1
DA:298,1
DA:300,1
DA:301,1
DA:302,1
DA:303,1
DA:304,1
DA:307,1
DA:308,1
DA:309,1
DA:311,1
DA:312,1
DA:313,1
DA:315,1
DA:316,1
DA:317,1
DA:318,1
DA:319,1
DA:322,1
DA:324,1
DA:325,1
DA:327,1
DA:328,1
DA:329,1
DA:330,1
DA:333,1
DA:334,1
DA:336,1
DA:337,1
DA:339,1
DA:340,1
DA:343,1
DA:344,1
DA:345,1
DA:349,1
DA:352,1
DA:353,1
DA:354,1
DA:355,1
DA:356,1
DA:357,1
DA:358,1
DA:359,1
DA:362,1
DA:365,1
DA:366,1
DA:367,1
DA:369,1
DA:370,1
DA:373,1
DA:374,1
DA:375,1
DA:377,1
DA:378,1
DA:380,1
DA:381,1
DA:382,1
DA:383,1
DA:386,1
DA:387,1
DA:388,1
DA:390,1
DA:392,1
DA:393,1
DA:395,1
DA:396,1
DA:397,1
DA:400,1
DA:401,1
DA:402,1
DA:404,1
DA:405,1
DA:407,1
DA:409,1
DA:410,1
DA:411,1
DA:412,1
DA:413,1
DA:414,1
DA:416,1
DA:418,1
DA:419,1
DA:420,1
DA:421,1
DA:422,1
DA:423,1
DA:424,1
DA:425,1
DA:428,1
DA:429,1
DA:430,1
DA:432,1
DA:433,1
DA:435,1
DA:436,1
DA:437,1
DA:438,1
DA:441,1
DA:442,1
DA:443,1
DA:445,1
DA:446,1
DA:448,1
DA:449,1
DA:450,1
DA:453,1
DA:456,1
DA:457,1
DA:460,1
DA:461,1
DA:462,1
DA:463,1
DA:464,1
DA:465,1
DA:468,1
DA:471,1
DA:474,1
DA:477,1
DA:480,1
DA:481,1
DA:482,1
DA:486,1
DA:489,1
DA:490,1
DA:491,1
DA:492,1
DA:493,1
DA:496,1
DA:497,1
DA:498,1
DA:499,1
DA:500,1
DA:501,1
DA:503,1
DA:504,1
DA:505,1
DA:506,1
BRF:0
BRH:0
LF:310
LH:286
end_of_record
SF:/home/quinten/Documents/Software_Development/muster/src/main.rs
FN:132,_RNCNvCs6lB35OqjRWy_6muster9cmd_reset0B3_
FN:137,_RNCNvCs6lB35OqjRWy_6muster9cmd_resets_0B3_
FN:91,_RNvCs6lB35OqjRWy_6muster10cmd_config
FN:45,_RNvCs6lB35OqjRWy_6muster4main
FN:122,_RNvCs6lB35OqjRWy_6muster9cmd_reset
FN:132,_RNCNvCsiurRivP1Pdo_6muster9cmd_reset0B3_
FN:137,_RNCNvCsiurRivP1Pdo_6muster9cmd_resets_0B3_
FN:91,_RNvCsiurRivP1Pdo_6muster10cmd_config
FN:122,_RNvCsiurRivP1Pdo_6muster9cmd_reset
FN:216,_RNvNtCsiurRivP1Pdo_6muster5testss_16test_cli_parsing
FN:223,_RNvNtCsiurRivP1Pdo_6muster5testss_18test_cli_set_agent
FN:267,_RNvNtCsiurRivP1Pdo_6muster5testss_20test_cmd_reset_force
FN:255,_RNvNtCsiurRivP1Pdo_6muster5testss_22test_cli_reset_command
FN:229,_RNvNtCsiurRivP1Pdo_6muster5testss_23test_cli_config_command
FN:242,_RNvNtCsiurRivP1Pdo_6muster5testss_24test_cli_config_with_set
FN:274,_RNvNtCsiurRivP1Pdo_6muster5testss_25test_cmd_config_show_path
FN:281,_RNvNtCsiurRivP1Pdo_6muster5testss_27test_cmd_config_show_config
FN:296,_RNvNtCsiurRivP1Pdo_6muster5testss_27test_cmd_config_unknown_key
FN:342,_RNvNtCsiurRivP1Pdo_6muster5testss_28test_cmd_config_set_auto_yes
FN:288,_RNvNtCsiurRivP1Pdo_6muster5testss_30test_cmd_config_invalid_format
FN:378,_RNvNtCsiurRivP1Pdo_6muster5testss_30test_cmd_config_set_max_agents
FN:403,_RNvNtCsiurRivP1Pdo_6muster5testss_31test_cmd_config_parse_int_error
FN:396,_RNvNtCsiurRivP1Pdo_6muster5testss_32test_cmd_config_parse_bool_error
FN:324,_RNvNtCsiurRivP1Pdo_6muster5testss_33test_cmd_config_set_branch_prefix
FN:360,_RNvNtCsiurRivP1Pdo_6muster5testss_33test_cmd_config_set_poll_interval
FN:305,_RNvNtCsiurRivP1Pdo_6muster5testss_35test_cmd_config_set_default_program
FN:45,_RNvCsiurRivP1Pdo_6muster4main
FNDA:1,_RNCNvCs6lB35OqjRWy_6muster9cmd_reset0B3_
FNDA:23,_RNCNvCs6lB35OqjRWy_6muster9cmd_resets_0B3_
FNDA:2,_RNvCs6lB35OqjRWy_6muster10cmd_config
FNDA:8,_RNvCs6lB35OqjRWy_6muster4main
FNDA:1,_RNvCs6lB35OqjRWy_6muster9cmd_reset
FNDA:0,_RNCNvCsiurRivP1Pdo_6muster9cmd_reset0B3_
FNDA:22,_RNCNvCsiurRivP1Pdo_6muster9cmd_resets_0B3_
FNDA:4,_RNvCsiurRivP1Pdo_6muster10cmd_config
FNDA:1,_RNvCsiurRivP1Pdo_6muster9cmd_reset
FNDA:1,_RNvNtCsiurRivP1Pdo_6muster5testss_16test_cli_parsing
FNDA:1,_RNvNtCsiurRivP1Pdo_6muster5testss_18test_cli_set_agent
FNDA:1,_RNvNtCsiurRivP1Pdo_6muster5testss_20test_cmd_reset_force
FNDA:1,_RNvNtCsiurRivP1Pdo_6muster5testss_22test_cli_reset_command
FNDA:1,_RNvNtCsiurRivP1Pdo_6muster5testss_23test_cli_config_command
FNDA:1,_RNvNtCsiurRivP1Pdo_6muster5testss_24test_cli_config_with_set
FNDA:1,_RNvNtCsiurRivP1Pdo_6muster5testss_25test_cmd_config_show_path
FNDA:1,_RNvNtCsiurRivP1Pdo_6muster5testss_27test_cmd_config_show_config
FNDA:1,_RNvNtCsiurRivP1Pdo_6muster5testss_27test_cmd_config_unknown_key
FNDA:1,_RNvNtCsiurRivP1Pdo_6muster5testss_28test_cmd_config_set_auto_yes
FNDA:1,_RNvNtCsiurRivP1Pdo_6muster5testss_30test_cmd_config_invalid_format
FNDA:1,_RNvNtCsiurRivP1Pdo_6muster5testss_30test_cmd_config_set_max_agents
FNDA:1,_RNvNtCsiurRivP1Pdo_6muster5testss_31test_cmd_config_parse_int_error
FNDA:1,_RNvNtCsiurRivP1Pdo_6muster5testss_32test_cmd_config_parse_bool_error
FNDA:1,_RNvNtCsiurRivP1Pdo_6muster5testss_33test_cmd_config_set_branch_prefix
FNDA:1,_RNvNtCsiurRivP1Pdo_6muster5testss_33test_cmd_config_set_poll_interval
FNDA:1,_RNvNtCsiurRivP1Pdo_6muster5testss_35test_cmd_config_set_default_program
FNDA:0,_RNvCsiurRivP1Pdo_6muster4main
FNF:22
FNH:22
DA:45,8
DA:46,8
DA:47,8
DA:48,8
DA:49,8
DA:51,8
DA:53,8
DA:54,4
DA:55,4
DA:57,4
DA:58,3
DA:60,2
DA:61,2
DA:63,2
DA:64,2
DA:65,2
DA:69,4
DA:72,4
DA:73,1
DA:74,1
DA:75,1
DA:76,1
DA:77,3
DA:79,3
DA:81,3
DA:82,2
DA:83,1
DA:85,0
DA:86,0
DA:89,4
DA:91,6
DA:92,6
DA:93,2
DA:94,2
DA:95,4
DA:97,4
DA:98,2
DA:99,2
DA:100,1
DA:103,1
DA:104,1
DA:105,1
DA:106,1
DA:107,1
DA:108,1
DA:109,1
DA:110,1
DA:112,0
DA:113,0
DA:115,2
DA:116,2
DA:119,2
DA:120,6
DA:122,2
DA:128,2
DA:129,2
DA:132,2
DA:133,2
DA:134,2
DA:135,2
DA:136,2
DA:137,45
DA:138,2
DA:140,2
DA:141,0
DA:142,0
DA:143,2
DA:146,2
DA:147,1
DA:148,1
DA:149,1
DA:150,1
DA:151,1
DA:152,1
DA:153,1
DA:154,1
DA:155,1
DA:156,1
DA:157,1
DA:159,2
DA:160,2
DA:161,4
DA:162,2
DA:163,2
DA:164,2
DA:165,0
DA:167,2
DA:168,0
DA:169,0
DA:171,0
DA:172,0
DA:174,0
DA:175,0
DA:176,0
DA:177,0
DA:178,2
DA:181,2
DA:182,2
DA:183,2
DA:184,2
DA:186,2
DA:187,1
DA:188,1
DA:189,1
DA:190,1
DA:192,1
DA:193,1
DA:194,1
DA:198,4
DA:199,2
DA:200,2
DA:203,2
DA:204,2
DA:205,2
DA:207,2
DA:208,2
DA:209,2
DA:216,1
DA:217,1
DA:218,1
DA:219,1
DA:220,1
DA:223,1
DA:224,1
DA:225,1
DA:226,1
DA:229,1
DA:230,1
DA:231,1
DA:232,1
DA:233,1
DA:234,1
DA:236,0
DA:238,1
DA:239,1
DA:242,1
DA:243,1
DA:244,1
DA:245,1
DA:246,1
DA:247,1
DA:249,0
DA:251,1
DA:252,1
DA:255,1
DA:256,1
DA:257,1
DA:258,1
DA:259,1
DA:261,0
DA:263,1
DA:264,1
DA:267,1
DA:269,1
DA:270,1
DA:271,1
DA:274,1
DA:275,1
DA:276,1
DA:277,1
DA:278,1
DA:281,1
DA:282,1
DA:283,1
DA:284,1
DA:285,1
DA:288,1
DA:289,1
DA:291,1
DA:292,1
DA:293,1
DA:296,1
DA:297,1
DA:298,1
DA:299,1
DA:300,1
DA:305,1
DA:308,1
DA:309,1
DA:311,1
DA:312,1
DA:313,1
DA:314,1
DA:315,1
DA:318,1
DA:319,1
DA:320,1
DA:321,1
DA:324,1
DA:327,1
DA:328,1
DA:330,1
DA:331,1
DA:332,1
DA:333,1
DA:334,1
DA:336,1
DA:337,1
DA:338,1
DA:339,1
DA:342,1
DA:345,1
DA:346,1
DA:348,1
DA:349,1
DA:350,1
DA:351,1
DA:352,1
DA:354,1
DA:355,1
DA:356,1
DA:357,1
DA:360,1
DA:363,1
DA:364,1
DA:366,1
DA:367,1
DA:368,1
DA:369,1
DA:370,1
DA:372,1
DA:373,1
DA:374,1
DA:375,1
DA:378,1
DA:381,1
DA:382,1
DA:384,1
DA:385,1
DA:386,1
DA:387,1
DA:388,1
DA:390,1
DA:391,1
DA:392,1
DA:393,1
DA:396,1
DA:398,1
DA:399,1
DA:400,1
DA:403,1
DA:405,1
DA:406,1
DA:407,1
BRF:0
BRH:0
LF:246
LH:227
end_of_record
SF:/home/quinten/Documents/Software_Development/muster/src/prompts.rs
FN:58,_RNCNvNtCs3bOdyUEi4qt_6muster7prompts22build_synthesis_prompt0B5_
FN:36,_RNvNtCs3bOdyUEi4qt_6muster7prompts17build_plan_prompt
FN:53,_RNvNtCs3bOdyUEi4qt_6muster7prompts22build_synthesis_prompt
FN:58,_RNCNvNtCs5Hx9zLFZsDi_6muster7prompts22build_synthesis_prompt0B5_
FN:36,_RNvNtCs5Hx9zLFZsDi_6muster7prompts17build_plan_prompt
FN:53,_RNvNtCs5Hx9zLFZsDi_6muster7prompts22build_synthesis_prompt
FN:72,_RNvNtNtCs5Hx9zLFZsDi_6muster7prompts5testss_22test_build_plan_prompt
FN:85,_RNvNtNtCs5Hx9zLFZsDi_6muster7prompts5testss_27test_build_synthesis_prompt
FN:79,_RNvNtNtCs5Hx9zLFZsDi_6muster7prompts5testss_39test_build_plan_prompt_trims_whitespace
FNDA:0,_RNCNvNtCs3bOdyUEi4qt_6muster7prompts22build_synthesis_prompt0B5_
FNDA:0,_RNvNtCs3bOdyUEi4qt_6muster7prompts17build_plan_prompt
FNDA:0,_RNvNtCs3bOdyUEi4qt_6muster7prompts22build_synthesis_prompt
FNDA:2,_RNCNvNtCs5Hx9zLFZsDi_6muster7prompts22build_synthesis_prompt0B5_
FNDA:2,_RNvNtCs5Hx9zLFZsDi_6muster7prompts17build_plan_prompt
FNDA:1,_RNvNtCs5Hx9zLFZsDi_6muster7prompts22build_synthesis_prompt
FNDA:1,_RNvNtNtCs5Hx9zLFZsDi_6muster7prompts5testss_22test_build_plan_prompt
FNDA:1,_RNvNtNtCs5Hx9zLFZsDi_6muster7prompts5testss_27test_build_synthesis_prompt
FNDA:1,_RNvNtNtCs5Hx9zLFZsDi_6muster7prompts5testss_39test_build_plan_prompt_trims_whitespace
FNF:6
FNH:6
DA:36,2
DA:37,2
DA:38,2
DA:53,1
DA:54,1
DA:55,1
DA:56,1
DA:57,1
DA:58,2
DA:59,1
DA:60,1
DA:62,1
DA:63,1
DA:64,1
DA:65,1
DA:72,1
DA:73,1
DA:74,1
DA:75,1
DA:76,1
DA:79,1
DA:80,1
DA:81,1
DA:82,1
DA:85,1
DA:86,1
DA:87,1
DA:88,1
DA:90,1
DA:92,1
DA:93,1
DA:94,1
DA:95,1
DA:96,1
DA:97,1
BRF:0
BRH:0
LF:36
LH:36
end_of_record
SF:/home/quinten/Documents/Software_Development/muster/src/tmux/capture.rs
FN:194,_RNCNvMNtNtCs3bOdyUEi4qt_6muster4tmux7captureNtB4_7Capture4tail0B8_
FN:22,_RNvMNtNtCs3bOdyUEi4qt_6muster4tmux7captureNtB2_7Capture12capture_pane
FN:130,_RNvMNtNtCs3bOdyUEi4qt_6muster4tmux7captureNtB2_7Capture15cursor_position
FN:72,_RNvMNtNtCs3bOdyUEi4qt_6muster4tmux7captureNtB2_7Capture20capture_full_history
FN:163,_RNvMNtNtCs3bOdyUEi4qt_6muster4tmux7captureNtB2_7Capture20pane_current_command
FN:45,_RNvMNtNtCs3bOdyUEi4qt_6muster4tmux7captureNtB2_7Capture25capture_pane_with_history
FN:13,_RNvMNtNtCs3bOdyUEi4qt_6muster4tmux7captureNtB2_7Capture3new
FN:186,_RNvMNtNtCs3bOdyUEi4qt_6muster4tmux7captureNtB2_7Capture4tail
FN:97,_RNvMNtNtCs3bOdyUEi4qt_6muster4tmux7captureNtB2_7Capture9pane_size
FN:194,_RNCNvMNtNtCs5Hx9zLFZsDi_6muster4tmux7captureNtB4_7Capture4tail0B8_
FN:22,_RNvMNtNtCs5Hx9zLFZsDi_6muster4tmux7captureNtB2_7Capture12capture_pane
FN:130,_RNvMNtNtCs5Hx9zLFZsDi_6muster4tmux7captureNtB2_7Capture15cursor_position
FN:72,_RNvMNtNtCs5Hx9zLFZsDi_6muster4tmux7captureNtB2_7Capture20capture_full_history
FN:163,_RNvMNtNtCs5Hx9zLFZsDi_6muster4tmux7captureNtB2_7Capture20pane_current_command
FN:45,_RNvMNtNtCs5Hx9zLFZsDi_6muster4tmux7captureNtB2_7Capture25capture_pane_with_history
FN:13,_RNvMNtNtCs5Hx9zLFZsDi_6muster4tmux7captureNtB2_7Capture3new
FN:186,_RNvMNtNtCs5Hx9zLFZsDi_6muster4tmux7captureNtB2_7Capture4tail
FN:97,_RNvMNtNtCs5Hx9zLFZsDi_6muster4tmux7captureNtB2_7Capture9pane_size
FN:207,_RNvNtNtNtCs5Hx9zLFZsDi_6muster4tmux7capture5tests15skip_if_no_tmux
FN:295,_RNvNtNtNtCs5Hx9zLFZsDi_6muster4tmux7capture5testss_18test_default_trait
FN:284,_RNvNtNtNtCs5Hx9zLFZsDi_6muster4tmux7capture5testss_21test_tail_nonexistent
FN:212,_RNvNtNtNtCs5Hx9zLFZsDi_6muster4tmux7capture5testss_23test_output_capture_new
FN:251,_RNvNtNtNtCs5Hx9zLFZsDi_6muster4tmux7capture5testss_26test_pane_size_nonexistent
FN:301,_RNvNtNtNtCs5Hx9zLFZsDi_6muster4tmux7capture5testss_30test_capture_with_real_session
FN:218,_RNvNtNtNtCs5Hx9zLFZsDi_6muster4tmux7capture5testss_32test_capture_nonexistent_session
FN:262,_RNvNtNtNtCs5Hx9zLFZsDi_6muster4tmux7capture5testss_32test_cursor_position_nonexistent
FN:240,_RNvNtNtNtCs5Hx9zLFZsDi_6muster4tmux7capture5testss_37test_capture_full_history_nonexistent
FN:229,_RNvNtNtNtCs5Hx9zLFZsDi_6muster4tmux7capture5testss_37test_capture_with_history_nonexistent
FN:273,_RNvNtNtNtCs5Hx9zLFZsDi_6muster4tmux7capture5testss_37test_pane_current_command_nonexistent
FNDA:0,_RNCNvMNtNtCs3bOdyUEi4qt_6muster4tmux7captureNtB4_7Capture4tail0B8_
FNDA:2,_RNvMNtNtCs3bOdyUEi4qt_6muster4tmux7captureNtB2_7Capture12capture_pane
FNDA:0,_RNvMNtNtCs3bOdyUEi4qt_6muster4tmux7captureNtB2_7Capture15cursor_position
FNDA:1,_RNvMNtNtCs3bOdyUEi4qt_6muster4tmux7captureNtB2_7Capture20capture_full_history
FNDA:0,_RNvMNtNtCs3bOdyUEi4qt_6muster4tmux7captureNtB2_7Capture20pane_current_command
FNDA:1,_RNvMNtNtCs3bOdyUEi4qt_6muster4tmux7captureNtB2_7Capture25capture_pane_with_history
FNDA:55,_RNvMNtNtCs3bOdyUEi4qt_6muster4tmux7captureNtB2_7Capture3new
FNDA:0,_RNvMNtNtCs3bOdyUEi4qt_6muster4tmux7captureNtB2_7Capture4tail
FNDA:0,_RNvMNtNtCs3bOdyUEi4qt_6muster4tmux7captureNtB2_7Capture9pane_size
FNDA:0,_RNCNvMNtNtCs5Hx9zLFZsDi_6muster4tmux7captureNtB4_7Capture4tail0B8_
FNDA:2,_RNvMNtNtCs5Hx9zLFZsDi_6muster4tmux7captureNtB2_7Capture12capture_pane
FNDA:1,_RNvMNtNtCs5Hx9zLFZsDi_6muster4tmux7captureNtB2_7Capture15cursor_position
FNDA:1,_RNvMNtNtCs5Hx9zLFZsDi_6muster4tmux7captureNtB2_7Capture20capture_full_history
FNDA:2,_RNvMNtNtCs5Hx9zLFZsDi_6muster4tmux7captureNtB2_7Capture20pane_current_command
FNDA:2,_RNvMNtNtCs5Hx9zLFZsDi_6muster4tmux7captureNtB2_7Capture25capture_pane_with_history
FNDA:58,_RNvMNtNtCs5Hx9zLFZsDi_6muster4tmux7captureNtB2_7Capture3new
FNDA:1,_RNvMNtNtCs5Hx9zLFZsDi_6muster4tmux7captureNtB2_7Capture4tail
FNDA:2,_RNvMNtNtCs5Hx9zLFZsDi_6muster4tmux7captureNtB2_7Capture9pane_size
FNDA:8,_RNvNtNtNtCs5Hx9zLFZsDi_6muster4tmux7capture5tests15skip_if_no_tmux
FNDA:1,_RNvNtNtNtCs5Hx9zLFZsDi_6muster4tmux7capture5testss_18test_default_trait
FNDA:1,_RNvNtNtNtCs5Hx9zLFZsDi_6muster4tmux7capture5testss_21test_tail_nonexistent
FNDA:1,_RNvNtNtNtCs5Hx9zLFZsDi_6muster4tmux7capture5testss_23test_output_capture_new
FNDA:1,_RNvNtNtNtCs5Hx9zLFZsDi_6muster4tmux7capture5testss_26test_pane_size_nonexistent
FNDA:1,_RNvNtNtNtCs5Hx9zLFZsDi_6muster4tmux7capture5testss_30test_capture_with_real_session
FNDA:1,_RNvNtNtNtCs5Hx9zLFZsDi_6muster4tmux7capture5testss_32test_capture_nonexistent_session
FNDA:1,_RNvNtNtNtCs5Hx9zLFZsDi_6muster4tmux7capture5testss_32test_cursor_position_nonexistent
FNDA:1,_RNvNtNtNtCs5Hx9zLFZsDi_6muster4tmux7capture5testss_37test_capture_full_history_nonexistent
FNDA:1,_RNvNtNtNtCs5Hx9zLFZsDi_6muster4tmux7capture5testss_37test_capture_with_history_nonexistent
FNDA:1,_RNvNtNtNtCs5Hx9zLFZsDi_6muster4tmux7capture5testss_37test_pane_current_command_nonexistent
FNF:20
FNH:19
DA:13,113
DA:14,113
DA:15,113
DA:22,4
DA:23,4
DA:24,4
DA:25,4
DA:26,4
DA:27,4
DA:28,4
DA:29,4
DA:30,4
DA:32,4
DA:33,2
DA:34,2
DA:35,2
DA:37,2
DA:38,4
DA:45,3
DA:46,3
DA:48,3
DA:49,3
DA:50,3
DA:51,3
DA:52,3
DA:53,3
DA:54,3
DA:55,3
DA:56,3
DA:57,3
DA:59,3
DA:60,2
DA:61,2
DA:62,1
DA:64,1
DA:65,3
DA:72,2
DA:73,2
DA:74,2
DA:75,2
DA:76,2
DA:77,2
DA:78,2
DA:79,2
DA:80,2
DA:81,2
DA:82,2
DA:84,2
DA:85,1
DA:86,1
DA:87,1
DA:89,1
DA:90,2
DA:97,2
DA:98,2
DA:99,2
DA:100,2
DA:101,2
DA:102,2
DA:103,2
DA:104,2
DA:105,2
DA:107,2
DA:108,0
DA:109,0
DA:110,2
DA:112,2
DA:113,2
DA:115,2
DA:116,0
DA:117,2
DA:119,2
DA:120,1
DA:122,1
DA:123,2
DA:130,1
DA:131,1
DA:132,1
DA:133,1
DA:134,1
DA:135,1
DA:136,1
DA:137,1
DA:138,1
DA:140,1
DA:141,0
DA:142,0
DA:143,1
DA:145,1
DA:146,1
DA:148,1
DA:149,0
DA:150,1
DA:152,1
DA:153,0
DA:155,0
DA:156,1
DA:163,2
DA:164,2
DA:165,2
DA:166,2
DA:167,2
DA:168,2
DA:169,2
DA:170,2
DA:171,2
DA:173,2
DA:174,0
DA:175,0
DA:176,2
DA:178,2
DA:179,2
DA:186,1
DA:187,1
DA:188,1
DA:190,0
DA:191,0
DA:192,0
DA:193,0
DA:194,0
DA:195,0
DA:196,0
DA:198,0
DA:199,0
DA:200,1
DA:207,8
DA:208,8
DA:209,8
DA:212,1
DA:213,1
DA:214,1
DA:215,1
DA:218,1
DA:219,1
DA:220,0
DA:221,1
DA:223,1
DA:224,1
DA:225,1
DA:226,1
DA:229,1
DA:230,1
DA:231,0
DA:232,1
DA:234,1
DA:235,1
DA:236,1
DA:237,1
DA:240,1
DA:241,1
DA:242,0
DA:243,1
DA:245,1
DA:246,1
DA:247,1
DA:248,1
DA:251,1
DA:252,1
DA:253,0
DA:254,1
DA:256,1
DA:257,1
DA:258,1
DA:259,1
DA:262,1
DA:263,1
DA:264,0
DA:265,1
DA:267,1
DA:268,1
DA:269,1
DA:270,1
DA:273,1
DA:274,1
DA:275,0
DA:276,1
DA:278,1
DA:279,1
DA:280,1
DA:281,1
DA:284,1
DA:285,1
DA:286,0
DA:287,1
DA:289,1
DA:290,1
DA:291,1
DA:292,1
DA:295,1
DA:296,1
DA:297,1
DA:298,1
DA:301,1
DA:304,1
DA:305,0
DA:306,1
DA:308,1
DA:309,1
DA:311,1
DA:313,1
DA:315,1
DA:316,0
DA:317,1
DA:319,1
DA:321,1
DA:322,0
DA:323,1
DA:325,1
DA:327,1
DA:329,1
DA:330,1
DA:331,1
DA:332,0
DA:334,1
DA:336,1
DA:337,1
BRF:0
BRH:0
LF:217
LH:182
end_of_record
SF:/home/quinten/Documents/Software_Development/muster/src/tmux/mod.rs
FN:18,_RNCNvNtCs3bOdyUEi4qt_6muster4tmux12is_available0B5_
FN:28,_RNCNvNtCs3bOdyUEi4qt_6muster4tmux17is_server_running0B5_
FN:14,_RNvNtCs3bOdyUEi4qt_6muster4tmux12is_available
FN:24,_RNvNtCs3bOdyUEi4qt_6muster4tmux17is_server_running
FN:40,_RNvNtCs3bOdyUEi4qt_6muster4tmux7version
FN:18,_RNCNvNtCs5Hx9zLFZsDi_6muster4tmux12is_available0B5_
FN:28,_RNCNvNtCs5Hx9zLFZsDi_6muster4tmux17is_server_running0B5_
FN:14,_RNvNtCs5Hx9zLFZsDi_6muster4tmux12is_available
FN:24,_RNvNtCs5Hx9zLFZsDi_6muster4tmux17is_server_running
FN:40,_RNvNtCs5Hx9zLFZsDi_6muster4tmux7version
FN:59,_RNvNtNtCs5Hx9zLFZsDi_6muster4tmux5testss_17test_is_available
FN:64,_RNvNtNtCs5Hx9zLFZsDi_6muster4tmux5testss_27test_version_when_available
FNDA:24,_RNCNvNtCs3bOdyUEi4qt_6muster4tmux12is_available0B5_
FNDA:0,_RNCNvNtCs3bOdyUEi4qt_6muster4tmux17is_server_running0B5_
FNDA:24,_RNvNtCs3bOdyUEi4qt_6muster4tmux12is_available
FNDA:0,_RNvNtCs3bOdyUEi4qt_6muster4tmux17is_server_running
FNDA:0,_RNvNtCs3bOdyUEi4qt_6muster4tmux7version
FNDA:18,_RNCNvNtCs5Hx9zLFZsDi_6muster4tmux12is_available0B5_
FNDA:16,_RNCNvNtCs5Hx9zLFZsDi_6muster4tmux17is_server_running0B5_
FNDA:18,_RNvNtCs5Hx9zLFZsDi_6muster4tmux12is_available
FNDA:16,_RNvNtCs5Hx9zLFZsDi_6muster4tmux17is_server_running
FNDA:1,_RNvNtCs5Hx9zLFZsDi_6muster4tmux7version
FNDA:1,_RNvNtNtCs5Hx9zLFZsDi_6muster4tmux5testss_17test_is_available
FNDA:1,_RNvNtNtCs5Hx9zLFZsDi_6muster4tmux5testss_27test_version_when_available
FNF:7
FNH:7
DA:14,42
DA:15,42
DA:16,42
DA:17,42
DA:18,42
DA:19,42
DA:20,42
DA:24,16
DA:25,16
DA:26,16
DA:27,16
DA:28,16
DA:29,16
DA:30,16
DA:31,16
DA:32,16
DA:33,16
DA:40,1
DA:41,1
DA:42,1
DA:43,1
DA:44,1
DA:46,1
DA:47,0
DA:48,1
DA:50,1
DA:51,1
DA:52,1
DA:59,1
DA:60,1
DA:61,1
DA:64,1
DA:65,1
DA:66,1
DA:67,1
DA:68,0
DA:69,1
DA:70,1
BRF:0
BRH:0
LF:40
LH:38
end_of_record
SF:/home/quinten/Documents/Software_Development/muster/src/tmux/session.rs
FN:104,_RNCNvMNtNtCs3bOdyUEi4qt_6muster4tmux7sessionNtB4_7Manager4list0B8_
FN:80,_RNCNvMNtNtCs3bOdyUEi4qt_6muster4tmux7sessionNtB4_7Manager6exists0B8_
FN:239,_RNvMNtNtCs3bOdyUEi4qt_6muster4tmux7sessionNtB2_7Manager11kill_window
FN:194,_RNvMNtNtCs3bOdyUEi4qt_6muster4tmux7sessionNtB2_7Manager13create_window
FN:267,_RNvMNtNtCs3bOdyUEi4qt_6muster4tmux7sessionNtB2_7Manager13resize_window
FN:258,_RNvMNtNtCs3bOdyUEi4qt_6muster4tmux7sessionNtB2_7Manager13window_target
FN:168,_RNvMNtNtCs3bOdyUEi4qt_6muster4tmux7sessionNtB2_7Manager14attach_command
FN:14,_RNvMNtNtCs3bOdyUEi4qt_6muster4tmux7sessionNtB2_7Manager3new
FN:56,_RNvMNtNtCs3bOdyUEi4qt_6muster4tmux7sessionNtB2_7Manager4kill
FN:89,_RNvMNtNtCs3bOdyUEi4qt_6muster4tmux7sessionNtB2_7Manager4list
FN:177,_RNvMNtNtCs3bOdyUEi4qt_6muster4tmux7sessionNtB2_7Manager6attach
FN:23,_RNvMNtNtCs3bOdyUEi4qt_6muster4tmux7sessionNtB2_7Manager6create
FN:74,_RNvMNtNtCs3bOdyUEi4qt_6muster4tmux7sessionNtB2_7Manager6exists
FN:149,_RNvMNtNtCs3bOdyUEi4qt_6muster4tmux7sessionNtB2_7Manager6rename
FN:126,_RNvMNtNtCs3bOdyUEi4qt_6muster4tmux7sessionNtB2_7Manager9send_keys
FN:104,_RNCNvMNtNtCs5Hx9zLFZsDi_6muster4tmux7sessionNtB4_7Manager4list0B8_
FN:80,_RNCNvMNtNtCs5Hx9zLFZsDi_6muster4tmux7sessionNtB4_7Manager6exists0B8_
FN:239,_RNvMNtNtCs5Hx9zLFZsDi_6muster4tmux7sessionNtB2_7Manager11kill_window
FN:267,_RNvMNtNtCs5Hx9zLFZsDi_6muster4tmux7sessionNtB2_7Manager13resize_window
FN:258,_RNvMNtNtCs5Hx9zLFZsDi_6muster4tmux7sessionNtB2_7Manager13window_target
FN:168,_RNvMNtNtCs5Hx9zLFZsDi_6muster4tmux7sessionNtB2_7Manager14attach_command
FN:14,_RNvMNtNtCs5Hx9zLFZsDi_6muster4tmux7sessionNtB2_7Manager3new
FN:56,_RNvMNtNtCs5Hx9zLFZsDi_6muster4tmux7sessionNtB2_7Manager4kill
FN:89,_RNvMNtNtCs5Hx9zLFZsDi_6muster4tmux7sessionNtB2_7Manager4list
FN:23,_RNvMNtNtCs5Hx9zLFZsDi_6muster4tmux7sessionNtB2_7Manager6create
FN:74,_RNvMNtNtCs5Hx9zLFZsDi_6muster4tmux7sessionNtB2_7Manager6exists
FN:149,_RNvMNtNtCs5Hx9zLFZsDi_6muster4tmux7sessionNtB2_7Manager6rename
FN:126,_RNvMNtNtCs5Hx9zLFZsDi_6muster4tmux7sessionNtB2_7Manager9send_keys
FN:303,_RNvNtNtNtCs5Hx9zLFZsDi_6muster4tmux7session5tests15skip_if_no_tmux
FN:323,_RNvNtNtNtCs5Hx9zLFZsDi_6muster4tmux7session5testss_18test_list_sessions
FN:427,_RNvNtNtNtCs5Hx9zLFZsDi_6muster4tmux7session5testss_18test_window_target
FN:332,_RNvNtNtNtCs5Hx9zLFZsDi_6muster4tmux7session5testss_19test_attach_command
FN:394,_RNvNtNtNtCs5Hx9zLFZsDi_6muster4tmux7session5testss_21test_kill_nonexistent
FN:314,_RNvNtNtNtCs5Hx9zLFZsDi_6muster4tmux7session5testss_23test_exists_nonexistent
FN:405,_RNvNtNtNtCs5Hx9zLFZsDi_6muster4tmux7session5testss_23test_rename_nonexistent
FN:351,_RNvNtNtNtCs5Hx9zLFZsDi_6muster4tmux7session5testss_24test_create_kill_session
FN:308,_RNvNtNtNtCs5Hx9zLFZsDi_6muster4tmux7session5testss_24test_session_manager_new
FN:338,_RNvNtNtNtCs5Hx9zLFZsDi_6muster4tmux7session5testss_24test_tmux_session_struct
FN:416,_RNvNtNtNtCs5Hx9zLFZsDi_6muster4tmux7session5testss_26test_send_keys_nonexistent
FN:444,_RNvNtNtNtCs5Hx9zLFZsDi_6muster4tmux7session5testss_26test_session_attached_true
FN:373,_RNvNtNtNtCs5Hx9zLFZsDi_6muster4tmux7session5testss_29test_create_duplicate_session
FN:433,_RNvNtNtNtCs5Hx9zLFZsDi_6muster4tmux7session5testss_30test_resize_window_nonexistent
FN:194,_RNvMNtNtCs5Hx9zLFZsDi_6muster4tmux7sessionNtB2_7Manager13create_window
FN:177,_RNvMNtNtCs5Hx9zLFZsDi_6muster4tmux7sessionNtB2_7Manager6attach
FNDA:849,_RNCNvMNtNtCs3bOdyUEi4qt_6muster4tmux7sessionNtB4_7Manager4list0B8_
FNDA:45,_RNCNvMNtNtCs3bOdyUEi4qt_6muster4tmux7sessionNtB4_7Manager6exists0B8_
FNDA:0,_RNvMNtNtCs3bOdyUEi4qt_6muster4tmux7sessionNtB2_7Manager11kill_window
FNDA:0,_RNvMNtNtCs3bOdyUEi4qt_6muster4tmux7sessionNtB2_7Manager13create_window
FNDA:3,_RNvMNtNtCs3bOdyUEi4qt_6muster4tmux7sessionNtB2_7Manager13resize_window
FNDA:0,_RNvMNtNtCs3bOdyUEi4qt_6muster4tmux7sessionNtB2_7Manager13window_target
FNDA:0,_RNvMNtNtCs3bOdyUEi4qt_6muster4tmux7sessionNtB2_7Manager14attach_command
FNDA:105,_RNvMNtNtCs3bOdyUEi4qt_6muster4tmux7sessionNtB2_7Manager3new
FNDA:37,_RNvMNtNtCs3bOdyUEi4qt_6muster4tmux7sessionNtB2_7Manager4kill
FNDA:34,_RNvMNtNtCs3bOdyUEi4qt_6muster4tmux7sessionNtB2_7Manager4list
FNDA:0,_RNvMNtNtCs3bOdyUEi4qt_6muster4tmux7sessionNtB2_7Manager6attach
FNDA:29,_RNvMNtNtCs3bOdyUEi4qt_6muster4tmux7sessionNtB2_7Manager6create
FNDA:45,_RNvMNtNtCs3bOdyUEi4qt_6muster4tmux7sessionNtB2_7Manager6exists
FNDA:0,_RNvMNtNtCs3bOdyUEi4qt_6muster4tmux7sessionNtB2_7Manager6rename
FNDA:1,_RNvMNtNtCs3bOdyUEi4qt_6muster4tmux7sessionNtB2_7Manager9send_keys
FNDA:22,_RNCNvMNtNtCs5Hx9zLFZsDi_6muster4tmux7sessionNtB4_7Manager4list0B8_
FNDA:16,_RNCNvMNtNtCs5Hx9zLFZsDi_6muster4tmux7sessionNtB4_7Manager6exists0B8_
FNDA:0,_RNvMNtNtCs5Hx9zLFZsDi_6muster4tmux7sessionNtB2_7Manager11kill_window
FNDA:1,_RNvMNtNtCs5Hx9zLFZsDi_6muster4tmux7sessionNtB2_7Manager13resize_window
FNDA:1,_RNvMNtNtCs5Hx9zLFZsDi_6muster4tmux7sessionNtB2_7Manager13window_target
FNDA:1,_RNvMNtNtCs5Hx9zLFZsDi_6muster4tmux7sessionNtB2_7Manager14attach_command
FNDA:59,_RNvMNtNtCs5Hx9zLFZsDi_6muster4tmux7sessionNtB2_7Manager3new
FNDA:12,_RNvMNtNtCs5Hx9zLFZsDi_6muster4tmux7sessionNtB2_7Manager4kill
FNDA:1,_RNvMNtNtCs5Hx9zLFZsDi_6muster4tmux7sessionNtB2_7Manager4list
FNDA:5,_RNvMNtNtCs5Hx9zLFZsDi_6muster4tmux7sessionNtB2_7Manager6create
FNDA:16,_RNvMNtNtCs5Hx9zLFZsDi_6muster4tmux7sessionNtB2_7Manager6exists
FNDA:1,_RNvMNtNtCs5Hx9zLFZsDi_6muster4tmux7sessionNtB2_7Manager6rename
FNDA:1,_RNvMNtNtCs5Hx9zLFZsDi_6muster4tmux7sessionNtB2_7Manager9send_keys
FNDA:8,_RNvNtNtNtCs5Hx9zLFZsDi_6muster4tmux7session5tests15skip_if_no_tmux
FNDA:1,_RNvNtNtNtCs5Hx9zLFZsDi_6muster4tmux7session5testss_18test_list_sessions
FNDA:1,_RNvNtNtNtCs5Hx9zLFZsDi_6muster4tmux7session5testss_18test_window_target
FNDA:1,_RNvNtNtNtCs5Hx9zLFZsDi_6muster4tmux7session5testss_19test_attach_command
FNDA:1,_RNvNtNtNtCs5Hx9zLFZsDi_6muster4tmux7session5testss_21test_kill_nonexistent
FNDA:1,_RNvNtNtNtCs5Hx9zLFZsDi_6muster4tmux7session5testss_23test_exists_nonexistent
FNDA:1,_RNvNtNtNtCs5Hx9zLFZsDi_6muster4tmux7session5testss_23test_rename_nonexistent
FNDA:1,_RNvNtNtNtCs5Hx9zLFZsDi_6muster4tmux7session5testss_24test_create_kill_session
FNDA:1,_RNvNtNtNtCs5Hx9zLFZsDi_6muster4tmux7session5testss_24test_session_manager_new
FNDA:1,_RNvNtNtNtCs5Hx9zLFZsDi_6muster4tmux7session5testss_24test_tmux_session_struct
FNDA:1,_RNvNtNtNtCs5Hx9zLFZsDi_6muster4tmux7session5testss_26test_send_keys_nonexistent
FNDA:1,_RNvNtNtNtCs5Hx9zLFZsDi_6muster4tmux7session5testss_26test_session_attached_true
FNDA:1,_RNvNtNtNtCs5Hx9zLFZsDi_6muster4tmux7session5testss_29test_create_duplicate_session
FNDA:1,_RNvNtNtNtCs5Hx9zLFZsDi_6muster4tmux7session5testss_30test_resize_window_nonexistent
FNDA:0,_RNvMNtNtCs5Hx9zLFZsDi_6muster4tmux7sessionNtB2_7Manager13create_window
FNDA:0,_RNvMNtNtCs5Hx9zLFZsDi_6muster4tmux7sessionNtB2_7Manager6attach
FNF:29
FNH:26
DA:14,164
DA:15,164
DA:16,164
DA:23,34
DA:24,34
DA:25,1
DA:26,33
DA:28,33
DA:29,33
DA:30,33
DA:31,33
DA:32,33
DA:33,33
DA:34,33
DA:36,33
DA:37,28
DA:38,28
DA:39,28
DA:41,33
DA:43,33
DA:44,0
DA:45,0
DA:46,33
DA:48,33
DA:49,34
DA:56,49
DA:57,49
DA:58,49
DA:59,49
DA:60,49
DA:61,49
DA:62,49
DA:64,49
DA:65,33
DA:66,33
DA:67,16
DA:69,16
DA:70,49
DA:74,61
DA:75,61
DA:76,61
DA:77,61
DA:78,61
DA:79,61
DA:80,61
DA:81,61
DA:82,61
DA:89,35
DA:90,35
DA:91,35
DA:92,35
DA:93,35
DA:94,35
DA:95,35
DA:97,35
DA:98,0
DA:99,35
DA:101,35
DA:102,35
DA:103,35
DA:104,871
DA:105,871
DA:106,871
DA:107,871
DA:108,871
DA:109,871
DA:110,871
DA:111,871
DA:113,0
DA:115,871
DA:116,35
DA:118,35
DA:119,35
DA:126,2
DA:127,2
DA:128,2
DA:129,2
DA:130,2
DA:131,2
DA:132,2
DA:133,2
DA:134,2
DA:136,2
DA:137,1
DA:138,1
DA:139,1
DA:141,1
DA:142,2
DA:149,1
DA:150,1
DA:151,1
DA:152,1
DA:153,1
DA:154,1
DA:155,1
DA:156,1
DA:158,1
DA:159,1
DA:160,1
DA:161,0
DA:163,0
DA:164,1
DA:168,1
DA:169,1
DA:170,1
DA:177,0
DA:180,0
DA:181,0
DA:182,0
DA:183,0
DA:184,0
DA:186,0
DA:187,0
DA:194,0
DA:195,0
DA:196,0
DA:197,0
DA:198,0
DA:199,0
DA:200,0
DA:201,0
DA:202,0
DA:203,0
DA:204,0
DA:205,0
DA:206,0
DA:207,0
DA:208,0
DA:209,0
DA:210,0
DA:211,0
DA:213,0
DA:214,0
DA:215,0
DA:217,0
DA:219,0
DA:220,0
DA:221,0
DA:222,0
DA:225,0
DA:226,0
DA:227,0
DA:228,0
DA:229,0
DA:231,0
DA:232,0
DA:239,0
DA:240,0
DA:241,0
DA:242,0
DA:243,0
DA:244,0
DA:245,0
DA:246,0
DA:248,0
DA:249,0
DA:250,0
DA:251,0
DA:253,0
DA:254,0
DA:258,1
DA:259,1
DA:260,1
DA:267,4
DA:268,4
DA:269,4
DA:270,4
DA:271,4
DA:272,4
DA:273,4
DA:274,4
DA:275,4
DA:276,4
DA:277,4
DA:279,4
DA:280,2
DA:281,2
DA:282,2
DA:284,2
DA:285,4
DA:303,8
DA:304,8
DA:305,8
DA:308,1
DA:309,1
DA:310,1
DA:311,1
DA:314,1
DA:315,1
DA:316,0
DA:317,1
DA:318,1
DA:319,1
DA:320,1
DA:323,1
DA:324,1
DA:325,0
DA:326,1
DA:327,1
DA:328,1
DA:329,1
DA:332,1
DA:333,1
DA:334,1
DA:335,1
DA:338,1
DA:339,1
DA:340,1
DA:341,1
DA:342,1
DA:343,1
DA:345,1
DA:346,1
DA:347,1
DA:348,1
DA:351,1
DA:352,1
DA:353,0
DA:354,1
DA:356,1
DA:357,1
DA:359,1
DA:361,1
DA:363,1
DA:364,1
DA:366,1
DA:367,1
DA:368,1
DA:369,0
DA:370,1
DA:373,1
DA:374,1
DA:375,0
DA:376,1
DA:378,1
DA:379,1
DA:381,1
DA:383,1
DA:385,1
DA:386,1
DA:387,1
DA:389,1
DA:390,0
DA:391,1
DA:394,1
DA:395,1
DA:396,0
DA:397,1
DA:399,1
DA:400,1
DA:401,1
DA:402,1
DA:405,1
DA:406,1
DA:407,0
DA:408,1
DA:410,1
DA:411,1
DA:412,1
DA:413,1
DA:416,1
DA:417,1
DA:418,0
DA:419,1
DA:421,1
DA:422,1
DA:423,1
DA:424,1
DA:427,1
DA:428,1
DA:429,1
DA:430,1
DA:433,1
DA:434,1
DA:435,0
DA:436,1
DA:438,1
DA:439,1
DA:440,1
DA:441,1
DA:444,1
DA:445,1
DA:446,1
DA:447,1
DA:448,1
DA:449,1
DA:450,1
DA:451,1
BRF:0
BRH:0
LF:290
LH:217
end_of_record
SF:/home/quinten/Documents/Software_Development/muster/src/tui/mod.rs
FN:52,_RNCNvNtCs6lB35OqjRWy_6muster3tui8run_loop0B5_
FN:130,_RNvNtCs6lB35OqjRWy_6muster3tui16handle_key_event
FN:22,_RNvNtCs6lB35OqjRWy_6muster3tui3run
FN:45,_RNvNtCs6lB35OqjRWy_6muster3tui8run_loop
FN:130,_RNvNtCsiurRivP1Pdo_6muster3tui16handle_key_event
FN:196,_RNvNtNtCsiurRivP1Pdo_6muster3tui5tests15create_test_app
FN:454,_RNvNtNtCsiurRivP1Pdo_6muster3tui5testss_35test_handle_key_event_cancel_action
FN:465,_RNvNtNtCsiurRivP1Pdo_6muster3tui5testss_36test_handle_key_event_scrolling_mode
FN:513,_RNvNtNtCsiurRivP1Pdo_6muster3tui5testss_37test_handle_key_event_confirming_kill
FN:529,_RNvNtNtCsiurRivP1Pdo_6muster3tui5testss_38test_handle_key_event_confirming_reset
FN:212,_RNvNtNtCsiurRivP1Pdo_6muster3tui5testss_38test_handle_key_event_normal_mode_help
FN:201,_RNvNtNtCsiurRivP1Pdo_6muster3tui5testss_38test_handle_key_event_normal_mode_quit
FN:345,_RNvNtNtCsiurRivP1Pdo_6muster3tui5testss_40test_handle_key_event_confirming_mode_no
FN:412,_RNvNtNtCsiurRivP1Pdo_6muster3tui5testss_40test_handle_key_event_normal_mode_scroll
FN:320,_RNvNtNtCsiurRivP1Pdo_6muster3tui5testss_41test_handle_key_event_confirming_mode_yes
FN:719,_RNvNtNtCsiurRivP1Pdo_6muster3tui5testss_41test_handle_key_event_error_modal_dismiss
FN:542,_RNvNtNtCsiurRivP1Pdo_6muster3tui5testss_42test_handle_key_event_confirming_capital_n
FN:497,_RNvNtNtCsiurRivP1Pdo_6muster3tui5testss_42test_handle_key_event_prompting_mode_input
FN:234,_RNvNtNtCsiurRivP1Pdo_6muster3tui5testss_43test_handle_key_event_normal_mode_new_agent
FN:439,_RNvNtNtCsiurRivP1Pdo_6muster3tui5testss_43test_handle_key_event_prompting_mode_escape
FN:358,_RNvNtNtCsiurRivP1Pdo_6muster3tui5testss_44test_handle_key_event_confirming_mode_escape
FN:385,_RNvNtNtCsiurRivP1Pdo_6muster3tui5testss_44test_handle_key_event_normal_mode_navigation
FN:401,_RNvNtNtCsiurRivP1Pdo_6muster3tui5testss_44test_handle_key_event_normal_mode_tab_switch
FN:634,_RNvNtNtCsiurRivP1Pdo_6muster3tui5testss_45test_handle_key_event_broadcasting_mode_input
FN:271,_RNvNtNtCsiurRivP1Pdo_6muster3tui5testss_45test_handle_key_event_creating_mode_backspace
FN:223,_RNvNtNtCsiurRivP1Pdo_6muster3tui5testss_45test_handle_key_event_help_mode_any_key_exits
FN:653,_RNvNtNtCsiurRivP1Pdo_6muster3tui5testss_46test_handle_key_event_broadcasting_mode_escape
FN:257,_RNvNtNtCsiurRivP1Pdo_6muster3tui5testss_46test_handle_key_event_creating_mode_char_input
FN:479,_RNvNtNtCsiurRivP1Pdo_6muster3tui5testss_46test_handle_key_event_creating_mode_other_keys
FN:427,_RNvNtNtCsiurRivP1Pdo_6muster3tui5testss_46test_handle_key_event_unknown_key_does_nothing
FN:334,_RNvNtNtCsiurRivP1Pdo_6muster3tui5testss_47test_handle_key_event_confirming_mode_capital_y
FN:604,_RNvNtNtCsiurRivP1Pdo_6muster3tui5testss_47test_handle_key_event_creating_mode_fallthrough
FN:619,_RNvNtNtCsiurRivP1Pdo_6muster3tui5testss_47test_handle_key_event_scrolling_mode_navigation
FN:668,_RNvNtNtCsiurRivP1Pdo_6muster3tui5testss_49test_handle_key_event_broadcasting_mode_backspace
FN:285,_RNvNtNtCsiurRivP1Pdo_6muster3tui5testss_50test_handle_key_event_creating_mode_escape_cancels
FN:736,_RNvNtNtCsiurRivP1Pdo_6muster3tui5testss_50test_handle_key_event_error_modal_dismiss_with_esc
FN:704,_RNvNtNtCsiurRivP1Pdo_6muster3tui5testss_51test_handle_key_event_broadcasting_mode_enter_empty
FN:555,_RNvNtNtCsiurRivP1Pdo_6muster3tui5testss_52test_handle_key_event_creating_mode_enter_with_input
FN:580,_RNvNtNtCsiurRivP1Pdo_6muster3tui5testss_53test_handle_key_event_prompting_mode_enter_with_input
FN:684,_RNvNtNtCsiurRivP1Pdo_6muster3tui5testss_54test_handle_key_event_broadcasting_mode_enter_no_agent
FN:371,_RNvNtNtCsiurRivP1Pdo_6muster3tui5testss_55test_handle_key_event_confirming_mode_other_key_ignored
FN:245,_RNvNtNtCsiurRivP1Pdo_6muster3tui5testss_55test_handle_key_event_normal_mode_new_agent_with_prompt
FN:304,_RNvNtNtCsiurRivP1Pdo_6muster3tui5testss_60test_handle_key_event_creating_mode_enter_empty_does_nothing
FN:52,_RNCNvNtCsiurRivP1Pdo_6muster3tui8run_loop0B5_
FN:22,_RNvNtCsiurRivP1Pdo_6muster3tui3run
FN:45,_RNvNtCsiurRivP1Pdo_6muster3tui8run_loop
FNDA:0,_RNCNvNtCs6lB35OqjRWy_6muster3tui8run_loop0B5_
FNDA:0,_RNvNtCs6lB35OqjRWy_6muster3tui16handle_key_event
FNDA:0,_RNvNtCs6lB35OqjRWy_6muster3tui3run
FNDA:0,_RNvNtCs6lB35OqjRWy_6muster3tui8run_loop
FNDA:55,_RNvNtCsiurRivP1Pdo_6muster3tui16handle_key_event
FNDA:37,_RNvNtNtCsiurRivP1Pdo_6muster3tui5tests15create_test_app
FNDA:1,_RNvNtNtCsiurRivP1Pdo_6muster3tui5testss_35test_handle_key_event_cancel_action
FNDA:1,_RNvNtNtCsiurRivP1Pdo_6muster3tui5testss_36test_handle_key_event_scrolling_mode
FNDA:1,_RNvNtNtCsiurRivP1Pdo_6muster3tui5testss_37test_handle_key_event_confirming_kill
FNDA:1,_RNvNtNtCsiurRivP1Pdo_6muster3tui5testss_38test_handle_key_event_confirming_reset
FNDA:1,_RNvNtNtCsiurRivP1Pdo_6muster3tui5testss_38test_handle_key_event_normal_mode_help
FNDA:1,_RNvNtNtCsiurRivP1Pdo_6muster3tui5testss_38test_handle_key_event_normal_mode_quit
FNDA:1,_RNvNtNtCsiurRivP1Pdo_6muster3tui5testss_40test_handle_key_event_confirming_mode_no
FNDA:1,_RNvNtNtCsiurRivP1Pdo_6muster3tui5testss_40test_handle_key_event_normal_mode_scroll
FNDA:1,_RNvNtNtCsiurRivP1Pdo_6muster3tui5testss_41test_handle_key_event_confirming_mode_yes
FNDA:1,_RNvNtNtCsiurRivP1Pdo_6muster3tui5testss_41test_handle_key_event_error_modal_dismiss
FNDA:1,_RNvNtNtCsiurRivP1Pdo_6muster3tui5testss_42test_handle_key_event_confirming_capital_n
FNDA:1,_RNvNtNtCsiurRivP1Pdo_6muster3tui5testss_42test_handle_key_event_prompting_mode_input
FNDA:1,_RNvNtNtCsiurRivP1Pdo_6muster3tui5testss_43test_handle_key_event_normal_mode_new_agent
FNDA:1,_RNvNtNtCsiurRivP1Pdo_6muster3tui5testss_43test_handle_key_event_prompting_mode_escape
FNDA:1,_RNvNtNtCsiurRivP1Pdo_6muster3tui5testss_44test_handle_key_event_confirming_mode_escape
FNDA:1,_RNvNtNtCsiurRivP1Pdo_6muster3tui5testss_44test_handle_key_event_normal_mode_navigation
FNDA:1,_RNvNtNtCsiurRivP1Pdo_6muster3tui5testss_44test_handle_key_event_normal_mode_tab_switch
FNDA:1,_RNvNtNtCsiurRivP1Pdo_6muster3tui5testss_45test_handle_key_event_broadcasting_mode_input
FNDA:1,_RNvNtNtCsiurRivP1Pdo_6muster3tui5testss_45test_handle_key_event_creating_mode_backspace
FNDA:1,_RNvNtNtCsiurRivP1Pdo_6muster3tui5testss_45test_handle_key_event_help_mode_any_key_exits
FNDA:1,_RNvNtNtCsiurRivP1Pdo_6muster3tui5testss_46test_handle_key_event_broadcasting_mode_escape
FNDA:1,_RNvNtNtCsiurRivP1Pdo_6muster3tui5testss_46test_handle_key_event_creating_mode_char_input
FNDA:1,_RNvNtNtCsiurRivP1Pdo_6muster3tui5testss_46test_handle_key_event_creating_mode_other_keys
FNDA:1,_RNvNtNtCsiurRivP1Pdo_6muster3tui5testss_46test_handle_key_event_unknown_key_does_nothing
FNDA:1,_RNvNtNtCsiurRivP1Pdo_6muster3tui5testss_47test_handle_key_event_confirming_mode_capital_y
FNDA:1,_RNvNtNtCsiurRivP1Pdo_6muster3tui5testss_47test_handle_key_event_creating_mode_fallthrough
FNDA:1,_RNvNtNtCsiurRivP1Pdo_6muster3tui5testss_47test_handle_key_event_scrolling_mode_navigation
FNDA:1,_RNvNtNtCsiurRivP1Pdo_6muster3tui5testss_49test_handle_key_event_broadcasting_mode_backspace
FNDA:1,_RNvNtNtCsiurRivP1Pdo_6muster3tui5testss_50test_handle_key_event_creating_mode_escape_cancels
FNDA:1,_RNvNtNtCsiurRivP1Pdo_6muster3tui5testss_50test_handle_key_event_error_modal_dismiss_with_esc
FNDA:1,_RNvNtNtCsiurRivP1Pdo_6muster3tui5testss_51test_handle_key_event_broadcasting_mode_enter_empty
FNDA:1,_RNvNtNtCsiurRivP1Pdo_6muster3tui5testss_52test_handle_key_event_creating_mode_enter_with_input
FNDA:1,_RNvNtNtCsiurRivP1Pdo_6muster3tui5testss_53test_handle_key_event_prompting_mode_enter_with_input
FNDA:1,_RNvNtNtCsiurRivP1Pdo_6muster3tui5testss_54test_handle_key_event_broadcasting_mode_enter_no_agent
FNDA:1,_RNvNtNtCsiurRivP1Pdo_6muster3tui5testss_55test_handle_key_event_confirming_mode_other_key_ignored
FNDA:1,_RNvNtNtCsiurRivP1Pdo_6muster3tui5testss_55test_handle_key_event_normal_mode_new_agent_with_prompt
FNDA:1,_RNvNtNtCsiurRivP1Pdo_6muster3tui5testss_60test_handle_key_event_creating_mode_enter_empty_does_nothing
FNDA:0,_RNCNvNtCsiurRivP1Pdo_6muster3tui8run_loop0B5_
FNDA:0,_RNvNtCsiurRivP1Pdo_6muster3tui3run
FNDA:0,_RNvNtCsiurRivP1Pdo_6muster3tui8run_loop
FNF:42
FNH:39
DA:22,0
DA:23,0
DA:24,0
DA:25,0
DA:26,0
DA:27,0
DA:29,0
DA:30,0
DA:32,0
DA:34,0
DA:35,0
DA:36,0
DA:39,0
DA:40,0
DA:42,0
DA:43,0
DA:45,0
DA:46,0
DA:47,0
DA:48,0
DA:49,0
DA:50,0
DA:52,0
DA:54,0
DA:57,0
DA:58,0
DA:59,0
DA:60,0
DA:61,0
DA:62,0
DA:63,0
DA:64,0
DA:66,0
DA:67,0
DA:68,0
DA:70,0
DA:71,0
DA:73,0
DA:74,0
DA:76,0
DA:77,0
DA:80,0
DA:81,0
DA:82,0
DA:83,0
DA:88,0
DA:90,0
DA:91,0
DA:92,0
DA:95,0
DA:96,0
DA:100,0
DA:101,0
DA:102,0
DA:103,0
DA:106,0
DA:107,0
DA:108,0
DA:111,0
DA:114,0
DA:115,0
DA:116,0
DA:119,0
DA:120,0
DA:122,0
DA:123,0
DA:124,0
DA:127,0
DA:128,0
DA:130,55
DA:131,55
DA:132,55
DA:133,55
DA:134,55
DA:135,55
DA:136,55
DA:138,25
DA:140,5
DA:141,5
DA:142,3
DA:143,1
DA:145,1
DA:147,0
DA:148,1
DA:149,0
DA:151,3
DA:152,1
DA:154,1
DA:155,2
DA:156,2
DA:157,4
DA:159,3
DA:160,10
DA:161,2
DA:162,5
DA:164,24
DA:166,0
DA:167,0
DA:168,0
DA:169,0
DA:170,0
DA:171,0
DA:173,8
DA:174,3
DA:175,4
DA:176,1
DA:178,1
DA:179,2
DA:181,19
DA:182,18
DA:183,1
DA:186,27
DA:187,55
DA:196,37
DA:197,37
DA:198,37
DA:201,1
DA:202,1
DA:203,1
DA:206,1
DA:207,1
DA:208,1
DA:209,1
DA:212,1
DA:213,1
DA:214,1
DA:217,1
DA:218,1
DA:219,1
DA:220,1
DA:223,1
DA:224,1
DA:225,1
DA:227,1
DA:228,1
DA:229,1
DA:230,1
DA:231,1
DA:234,1
DA:235,1
DA:236,1
DA:239,1
DA:240,1
DA:241,1
DA:242,1
DA:245,1
DA:246,1
DA:247,1
DA:248,1
DA:251,1
DA:252,1
DA:253,1
DA:254,1
DA:257,1
DA:258,1
DA:259,1
DA:261,1
DA:262,1
DA:263,1
DA:264,1
DA:266,1
DA:267,1
DA:268,1
DA:271,1
DA:272,1
DA:273,1
DA:275,1
DA:276,1
DA:277,1
DA:278,1
DA:280,1
DA:281,1
DA:282,1
DA:285,1
DA:287,1
DA:288,1
DA:290,1
DA:291,1
DA:292,1
DA:293,1
DA:294,1
DA:296,1
DA:298,1
DA:299,1
DA:300,1
DA:301,1
DA:304,1
DA:305,1
DA:306,1
DA:307,1
DA:309,1
DA:311,1
DA:313,1
DA:315,1
DA:316,1
DA:317,1
DA:320,1
DA:321,1
DA:322,1
DA:325,1
DA:328,1
DA:329,1
DA:330,1
DA:331,1
DA:334,1
DA:335,1
DA:336,1
DA:338,1
DA:339,1
DA:340,1
DA:341,1
DA:342,1
DA:345,1
DA:346,1
DA:347,1
DA:349,1
DA:350,1
DA:352,1
DA:353,1
DA:354,1
DA:355,1
DA:358,1
DA:359,1
DA:360,1
DA:362,1
DA:363,1
DA:365,1
DA:366,1
DA:367,1
DA:368,1
DA:371,1
DA:372,1
DA:373,1
DA:374,1
DA:376,1
DA:377,1
DA:380,1
DA:381,1
DA:382,1
DA:385,1
DA:386,1
DA:387,1
DA:390,1
DA:391,1
DA:392,1
DA:393,1
DA:396,1
DA:397,1
DA:398,1
DA:401,1
DA:402,1
DA:403,1
DA:405,1
DA:406,1
DA:407,1
DA:408,1
DA:409,1
DA:412,1
DA:413,1
DA:414,1
DA:417,1
DA:418,1
DA:419,1
DA:420,1
DA:422,1
DA:423,1
DA:424,1
DA:427,1
DA:428,1
DA:429,1
DA:432,1
DA:433,1
DA:434,1
DA:435,1
DA:436,1
DA:439,1
DA:440,1
DA:441,1
DA:443,1
DA:444,1
DA:445,1
DA:447,1
DA:449,1
DA:450,1
DA:451,1
DA:454,1
DA:455,1
DA:456,1
DA:459,1
DA:460,1
DA:461,1
DA:462,1
DA:465,1
DA:466,1
DA:467,1
DA:470,1
DA:473,1
DA:474,1
DA:475,1
DA:476,1
DA:479,1
DA:480,1
DA:481,1
DA:483,1
DA:486,1
DA:487,1
DA:488,1
DA:489,1
DA:492,1
DA:493,1
DA:494,1
DA:497,1
DA:498,1
DA:499,1
DA:501,1
DA:504,1
DA:505,1
DA:507,1
DA:508,1
DA:509,1
DA:510,1
DA:513,1
DA:514,1
DA:515,1
DA:518,1
DA:521,1
DA:524,1
DA:525,1
DA:526,1
DA:529,1
DA:530,1
DA:531,1
DA:533,1
DA:536,1
DA:537,1
DA:538,1
DA:539,1
DA:542,1
DA:543,1
DA:544,1
DA:546,1
DA:549,1
DA:550,1
DA:551,1
DA:552,1
DA:555,1
DA:556,1
DA:557,1
DA:558,1
DA:560,1
DA:561,1
DA:562,1
DA:563,1
DA:564,1
DA:567,1
DA:570,1
DA:571,1
DA:572,0
DA:575,1
DA:576,1
DA:577,1
DA:580,1
DA:581,1
DA:582,1
DA:583,1
DA:585,1
DA:586,1
DA:587,1
DA:588,1
DA:591,1
DA:594,1
DA:595,1
DA:596,0
DA:599,1
DA:600,1
DA:601,1
DA:604,1
DA:605,1
DA:606,1
DA:608,1
DA:611,1
DA:614,1
DA:615,1
DA:616,1
DA:619,1
DA:620,1
DA:621,1
DA:623,1
DA:626,1
DA:627,1
DA:630,1
DA:631,1
DA:634,1
DA:635,1
DA:636,1
DA:638,1
DA:641,1
DA:642,1
DA:643,1
DA:644,1
DA:645,1
DA:647,1
DA:648,1
DA:649,1
DA:650,1
DA:653,1
DA:654,1
DA:655,1
DA:657,1
DA:658,1
DA:659,1
DA:661,1
DA:663,1
DA:664,1
DA:665,1
DA:668,1
DA:670,1
DA:671,1
DA:673,1
DA:674,1
DA:675,1
DA:677,1
DA:679,1
DA:680,1
DA:681,1
DA:684,1
DA:685,1
DA:686,1
DA:687,1
DA:689,1
DA:690,1
DA:691,1
DA:692,1
DA:693,1
DA:696,1
DA:698,1
DA:699,1
DA:700,1
DA:701,1
DA:704,1
DA:705,1
DA:706,1
DA:707,1
DA:709,1
DA:712,1
DA:714,1
DA:715,1
DA:716,1
DA:719,1
DA:720,1
DA:721,1
DA:724,1
DA:725,1
DA:728,1
DA:730,1
DA:731,1
DA:732,1
DA:733,1
DA:736,1
DA:738,1
DA:739,1
DA:741,1
DA:742,1
DA:744,1
DA:746,1
DA:747,1
DA:748,1
BRF:0
BRH:0
LF:468
LH:388
end_of_record
SF:/home/quinten/Documents/Software_Development/muster/src/tui/render.rs
FN:309,_RNCNvNtNtCs6lB35OqjRWy_6muster3tui6render11render_diff0B7_
FN:279,_RNCNvNtNtCs6lB35OqjRWy_6muster3tui6render14render_preview0B7_
FN:255,_RNCNvNtNtCs6lB35OqjRWy_6muster3tui6render14render_tab_bar0B7_
FN:165,_RNCNvNtNtCs6lB35OqjRWy_6muster3tui6render17render_agent_list0B7_
FN:85,_RNCNvNtNtCs6lB35OqjRWy_6muster3tui6render6render0B7_
FN:91,_RNCNvNtNtCs6lB35OqjRWy_6muster3tui6render6renders_0B7_
FN:304,_RNvNtNtCs6lB35OqjRWy_6muster3tui6render11render_diff
FN:149,_RNvNtNtCs6lB35OqjRWy_6muster3tui6render11render_main
FN:275,_RNvNtNtCs6lB35OqjRWy_6muster3tui6render14render_preview
FN:247,_RNvNtNtCs6lB35OqjRWy_6muster3tui6render14render_tab_bar
FN:159,_RNvNtNtCs6lB35OqjRWy_6muster3tui6render17render_agent_list
FN:343,_RNvNtNtCs6lB35OqjRWy_6muster3tui6render17render_status_bar
FN:626,_RNvNtNtCs6lB35OqjRWy_6muster3tui6render18render_error_modal
FN:233,_RNvNtNtCs6lB35OqjRWy_6muster3tui6render19render_content_pane
FN:430,_RNvNtNtCs6lB35OqjRWy_6muster3tui6render19render_help_overlay
FN:495,_RNvNtNtCs6lB35OqjRWy_6muster3tui6render20render_input_overlay
FN:712,_RNvNtNtCs6lB35OqjRWy_6muster3tui6render22centered_rect_absolute
FN:587,_RNvNtNtCs6lB35OqjRWy_6muster3tui6render22render_confirm_overlay
FN:531,_RNvNtNtCs6lB35OqjRWy_6muster3tui6render27render_count_picker_overlay
FN:374,_RNvNtNtCs6lB35OqjRWy_6muster3tui6render27styled_mnemonic_description
FN:694,_RNvNtNtCs6lB35OqjRWy_6muster3tui6render28calculate_preview_dimensions
FN:49,_RNvNtNtCs6lB35OqjRWy_6muster3tui6render6render
FN:309,_RNCNvNtNtCsiurRivP1Pdo_6muster3tui6render11render_diff0B7_
FN:279,_RNCNvNtNtCsiurRivP1Pdo_6muster3tui6render14render_preview0B7_
FN:255,_RNCNvNtNtCsiurRivP1Pdo_6muster3tui6render14render_tab_bar0B7_
FN:165,_RNCNvNtNtCsiurRivP1Pdo_6muster3tui6render17render_agent_list0B7_
FN:85,_RNCNvNtNtCsiurRivP1Pdo_6muster3tui6render6render0B7_
FN:91,_RNCNvNtNtCsiurRivP1Pdo_6muster3tui6render6renders_0B7_
FN:947,_RNCNvNtNtNtCsiurRivP1Pdo_6muster3tui6render5testss_20test_render_diff_tab0B9_
FN:800,_RNCNvNtNtNtCsiurRivP1Pdo_6muster3tui6render5testss_21test_render_help_mode0B9_
FN:903,_RNCNvNtNtNtCsiurRivP1Pdo_6muster3tui6render5testss_22test_render_with_error0B9_
FN:1106,_RNCNvNtNtNtCsiurRivP1Pdo_6muster3tui6render5testss_23test_render_error_modal0B9_
FN:784,_RNCNvNtNtNtCsiurRivP1Pdo_6muster3tui6render5testss_23test_render_normal_mode0B9_
FN:1019,_RNCNvNtNtNtCsiurRivP1Pdo_6muster3tui6render5testss_24test_render_empty_agents0B9_
FN:820,_RNCNvNtNtNtCsiurRivP1Pdo_6muster3tui6render5testss_25test_render_creating_mode0B9_
FN:1052,_RNCNvNtNtNtCsiurRivP1Pdo_6muster3tui6render5testss_25test_render_various_sizes0B9_
FN:839,_RNCNvNtNtNtCsiurRivP1Pdo_6muster3tui6render5testss_26test_render_prompting_mode0B9_
FN:1069,_RNCNvNtNtNtCsiurRivP1Pdo_6muster3tui6render5testss_26test_render_scrolling_mode0B9_
FN:1036,_RNCNvNtNtNtCsiurRivP1Pdo_6muster3tui6render5testss_26test_render_with_selection0B9_
FN:999,_RNCNvNtNtNtCsiurRivP1Pdo_6muster3tui6render5testss_28test_render_diff_with_scroll0B9_
FN:1004,_RNCNvNtNtNtCsiurRivP1Pdo_6muster3tui6render5testss_28test_render_diff_with_scrolls_0B9_
FN:978,_RNCNvNtNtNtCsiurRivP1Pdo_6muster3tui6render5testss_31test_render_preview_with_scroll0B9_
FN:983,_RNCNvNtNtNtCsiurRivP1Pdo_6muster3tui6render5testss_31test_render_preview_with_scrolls_0B9_
FN:919,_RNCNvNtNtNtCsiurRivP1Pdo_6muster3tui6render5testss_31test_render_with_status_message0B9_
FN:855,_RNCNvNtNtNtCsiurRivP1Pdo_6muster3tui6render5testss_32test_render_confirming_kill_mode0B9_
FN:887,_RNCNvNtNtNtCsiurRivP1Pdo_6muster3tui6render5testss_32test_render_confirming_quit_mode0B9_
FN:963,_RNCNvNtNtNtCsiurRivP1Pdo_6muster3tui6render5testss_32test_render_preview_with_content0B9_
FN:871,_RNCNvNtNtNtCsiurRivP1Pdo_6muster3tui6render5testss_33test_render_confirming_reset_mode0B9_
FN:1087,_RNCNvNtNtNtCsiurRivP1Pdo_6muster3tui6render5testss_34test_render_scroll_exceeds_content0B9_
FN:1122,_RNCNvNtNtNtCsiurRivP1Pdo_6muster3tui6render5testss_36test_render_error_modal_long_message0B9_
FN:304,_RNvNtNtCsiurRivP1Pdo_6muster3tui6render11render_diff
FN:149,_RNvNtNtCsiurRivP1Pdo_6muster3tui6render11render_main
FN:275,_RNvNtNtCsiurRivP1Pdo_6muster3tui6render14render_preview
FN:247,_RNvNtNtCsiurRivP1Pdo_6muster3tui6render14render_tab_bar
FN:159,_RNvNtNtCsiurRivP1Pdo_6muster3tui6render17render_agent_list
FN:343,_RNvNtNtCsiurRivP1Pdo_6muster3tui6render17render_status_bar
FN:626,_RNvNtNtCsiurRivP1Pdo_6muster3tui6render18render_error_modal
FN:233,_RNvNtNtCsiurRivP1Pdo_6muster3tui6render19render_content_pane
FN:430,_RNvNtNtCsiurRivP1Pdo_6muster3tui6render19render_help_overlay
FN:495,_RNvNtNtCsiurRivP1Pdo_6muster3tui6render20render_input_overlay
FN:712,_RNvNtNtCsiurRivP1Pdo_6muster3tui6render22centered_rect_absolute
FN:587,_RNvNtNtCsiurRivP1Pdo_6muster3tui6render22render_confirm_overlay
FN:531,_RNvNtNtCsiurRivP1Pdo_6muster3tui6render27render_count_picker_overlay
FN:374,_RNvNtNtCsiurRivP1Pdo_6muster3tui6render27styled_mnemonic_description
FN:694,_RNvNtNtCsiurRivP1Pdo_6muster3tui6render28calculate_preview_dimensions
FN:49,_RNvNtNtCsiurRivP1Pdo_6muster3tui6render6render
FN:754,_RNvNtNtNtCsiurRivP1Pdo_6muster3tui6render5tests17create_test_agent
FN:743,_RNvNtNtNtCsiurRivP1Pdo_6muster3tui6render5tests18create_test_config
FN:766,_RNvNtNtNtCsiurRivP1Pdo_6muster3tui6render5tests27create_test_app_with_agents
FN:929,_RNvNtNtNtCsiurRivP1Pdo_6muster3tui6render5testss_20test_render_diff_tab
FN:794,_RNvNtNtNtCsiurRivP1Pdo_6muster3tui6render5testss_21test_render_help_mode
FN:897,_RNvNtNtNtCsiurRivP1Pdo_6muster3tui6render5testss_22test_render_with_error
FN:1097,_RNvNtNtNtCsiurRivP1Pdo_6muster3tui6render5testss_23test_render_error_modal
FN:779,_RNvNtNtNtCsiurRivP1Pdo_6muster3tui6render5testss_23test_render_normal_mode
FN:1014,_RNvNtNtNtCsiurRivP1Pdo_6muster3tui6render5testss_24test_render_empty_agents
FN:810,_RNvNtNtNtCsiurRivP1Pdo_6muster3tui6render5testss_25test_render_creating_mode
FN:1046,_RNvNtNtNtCsiurRivP1Pdo_6muster3tui6render5testss_25test_render_various_sizes
FN:830,_RNvNtNtNtCsiurRivP1Pdo_6muster3tui6render5testss_26test_render_prompting_mode
FN:1063,_RNvNtNtNtCsiurRivP1Pdo_6muster3tui6render5testss_26test_render_scrolling_mode
FN:1029,_RNvNtNtNtCsiurRivP1Pdo_6muster3tui6render5testss_26test_render_with_selection
FN:993,_RNvNtNtNtCsiurRivP1Pdo_6muster3tui6render5testss_28test_render_diff_with_scroll
FN:973,_RNvNtNtNtCsiurRivP1Pdo_6muster3tui6render5testss_31test_render_preview_with_scroll
FN:913,_RNvNtNtNtCsiurRivP1Pdo_6muster3tui6render5testss_31test_render_with_status_message
FN:849,_RNvNtNtNtCsiurRivP1Pdo_6muster3tui6render5testss_32test_render_confirming_kill_mode
FN:881,_RNvNtNtNtCsiurRivP1Pdo_6muster3tui6render5testss_32test_render_confirming_quit_mode
FN:957,_RNvNtNtNtCsiurRivP1Pdo_6muster3tui6render5testss_32test_render_preview_with_content
FN:1132,_RNvNtNtNtCsiurRivP1Pdo_6muster3tui6render5testss_33test_calculate_preview_dimensions
FN:865,_RNvNtNtNtCsiurRivP1Pdo_6muster3tui6render5testss_33test_render_confirming_reset_mode
FN:1079,_RNvNtNtNtCsiurRivP1Pdo_6muster3tui6render5testss_34test_render_scroll_exceeds_content
FN:1116,_RNvNtNtNtCsiurRivP1Pdo_6muster3tui6render5testss_36test_render_error_modal_long_message
FN:1146,_RNvNtNtNtCsiurRivP1Pdo_6muster3tui6render5testss_48test_calculate_preview_dimensions_large_terminal
FN:1160,_RNvNtNtNtCsiurRivP1Pdo_6muster3tui6render5testss_48test_calculate_preview_dimensions_small_terminal
FNDA:0,_RNCNvNtNtCs6lB35OqjRWy_6muster3tui6render11render_diff0B7_
FNDA:0,_RNCNvNtNtCs6lB35OqjRWy_6muster3tui6render14render_preview0B7_
FNDA:0,_RNCNvNtNtCs6lB35OqjRWy_6muster3tui6render14render_tab_bar0B7_
FNDA:0,_RNCNvNtNtCs6lB35OqjRWy_6muster3tui6render17render_agent_list0B7_
FNDA:0,_RNCNvNtNtCs6lB35OqjRWy_6muster3tui6render6render0B7_
FNDA:0,_RNCNvNtNtCs6lB35OqjRWy_6muster3tui6render6renders_0B7_
FNDA:0,_RNvNtNtCs6lB35OqjRWy_6muster3tui6render11render_diff
FNDA:0,_RNvNtNtCs6lB35OqjRWy_6muster3tui6render11render_main
FNDA:0,_RNvNtNtCs6lB35OqjRWy_6muster3tui6render14render_preview
FNDA:0,_RNvNtNtCs6lB35OqjRWy_6muster3tui6render14render_tab_bar
FNDA:0,_RNvNtNtCs6lB35OqjRWy_6muster3tui6render17render_agent_list
FNDA:0,_RNvNtNtCs6lB35OqjRWy_6muster3tui6render17render_status_bar
FNDA:0,_RNvNtNtCs6lB35OqjRWy_6muster3tui6render18render_error_modal
FNDA:0,_RNvNtNtCs6lB35OqjRWy_6muster3tui6render19render_content_pane
FNDA:0,_RNvNtNtCs6lB35OqjRWy_6muster3tui6render19render_help_overlay
FNDA:0,_RNvNtNtCs6lB35OqjRWy_6muster3tui6render20render_input_overlay
FNDA:0,_RNvNtNtCs6lB35OqjRWy_6muster3tui6render22centered_rect_absolute
FNDA:0,_RNvNtNtCs6lB35OqjRWy_6muster3tui6render22render_confirm_overlay
FNDA:0,_RNvNtNtCs6lB35OqjRWy_6muster3tui6render27render_count_picker_overlay
FNDA:0,_RNvNtNtCs6lB35OqjRWy_6muster3tui6render27styled_mnemonic_description
FNDA:0,_RNvNtNtCs6lB35OqjRWy_6muster3tui6render28calculate_preview_dimensions
FNDA:0,_RNvNtNtCs6lB35OqjRWy_6muster3tui6render6render
FNDA:108,_RNCNvNtNtCsiurRivP1Pdo_6muster3tui6render11render_diff0B7_
FNDA:0,_RNCNvNtNtCsiurRivP1Pdo_6muster3tui6render14render_preview0B7_
FNDA:46,_RNCNvNtNtCsiurRivP1Pdo_6muster3tui6render14render_tab_bar0B7_
FNDA:88,_RNCNvNtNtCsiurRivP1Pdo_6muster3tui6render17render_agent_list0B7_
FNDA:0,_RNCNvNtNtCsiurRivP1Pdo_6muster3tui6render6render0B7_
FNDA:1,_RNCNvNtNtCsiurRivP1Pdo_6muster3tui6render6renders_0B7_
FNDA:1,_RNCNvNtNtNtCsiurRivP1Pdo_6muster3tui6render5testss_20test_render_diff_tab0B9_
FNDA:1,_RNCNvNtNtNtCsiurRivP1Pdo_6muster3tui6render5testss_21test_render_help_mode0B9_
FNDA:1,_RNCNvNtNtNtCsiurRivP1Pdo_6muster3tui6render5testss_22test_render_with_error0B9_
FNDA:1,_RNCNvNtNtNtCsiurRivP1Pdo_6muster3tui6render5testss_23test_render_error_modal0B9_
FNDA:1,_RNCNvNtNtNtCsiurRivP1Pdo_6muster3tui6render5testss_23test_render_normal_mode0B9_
FNDA:1,_RNCNvNtNtNtCsiurRivP1Pdo_6muster3tui6render5testss_24test_render_empty_agents0B9_
FNDA:1,_RNCNvNtNtNtCsiurRivP1Pdo_6muster3tui6render5testss_25test_render_creating_mode0B9_
FNDA:4,_RNCNvNtNtNtCsiurRivP1Pdo_6muster3tui6render5testss_25test_render_various_sizes0B9_
FNDA:1,_RNCNvNtNtNtCsiurRivP1Pdo_6muster3tui6render5testss_26test_render_prompting_mode0B9_
FNDA:1,_RNCNvNtNtNtCsiurRivP1Pdo_6muster3tui6render5testss_26test_render_scrolling_mode0B9_
FNDA:1,_RNCNvNtNtNtCsiurRivP1Pdo_6muster3tui6render5testss_26test_render_with_selection0B9_
FNDA:100,_RNCNvNtNtNtCsiurRivP1Pdo_6muster3tui6render5testss_28test_render_diff_with_scroll0B9_
FNDA:1,_RNCNvNtNtNtCsiurRivP1Pdo_6muster3tui6render5testss_28test_render_diff_with_scrolls_0B9_
FNDA:100,_RNCNvNtNtNtCsiurRivP1Pdo_6muster3tui6render5testss_31test_render_preview_with_scroll0B9_
FNDA:1,_RNCNvNtNtNtCsiurRivP1Pdo_6muster3tui6render5testss_31test_render_preview_with_scrolls_0B9_
FNDA:1,_RNCNvNtNtNtCsiurRivP1Pdo_6muster3tui6render5testss_31test_render_with_status_message0B9_
FNDA:1,_RNCNvNtNtNtCsiurRivP1Pdo_6muster3tui6render5testss_32test_render_confirming_kill_mode0B9_
FNDA:1,_RNCNvNtNtNtCsiurRivP1Pdo_6muster3tui6render5testss_32test_render_confirming_quit_mode0B9_
FNDA:1,_RNCNvNtNtNtCsiurRivP1Pdo_6muster3tui6render5testss_32test_render_preview_with_content0B9_
FNDA:1,_RNCNvNtNtNtCsiurRivP1Pdo_6muster3tui6render5testss_33test_render_confirming_reset_mode0B9_
FNDA:1,_RNCNvNtNtNtCsiurRivP1Pdo_6muster3tui6render5testss_34test_render_scroll_exceeds_content0B9_
FNDA:1,_RNCNvNtNtNtCsiurRivP1Pdo_6muster3tui6render5testss_36test_render_error_modal_long_message0B9_
FNDA:2,_RNvNtNtCsiurRivP1Pdo_6muster3tui6render11render_diff
FNDA:23,_RNvNtNtCsiurRivP1Pdo_6muster3tui6render11render_main
FNDA:21,_RNvNtNtCsiurRivP1Pdo_6muster3tui6render14render_preview
FNDA:23,_RNvNtNtCsiurRivP1Pdo_6muster3tui6render14render_tab_bar
FNDA:23,_RNvNtNtCsiurRivP1Pdo_6muster3tui6render17render_agent_list
FNDA:23,_RNvNtNtCsiurRivP1Pdo_6muster3tui6render17render_status_bar
FNDA:3,_RNvNtNtCsiurRivP1Pdo_6muster3tui6render18render_error_modal
FNDA:23,_RNvNtNtCsiurRivP1Pdo_6muster3tui6render19render_content_pane
FNDA:1,_RNvNtNtCsiurRivP1Pdo_6muster3tui6render19render_help_overlay
FNDA:2,_RNvNtNtCsiurRivP1Pdo_6muster3tui6render20render_input_overlay
FNDA:9,_RNvNtNtCsiurRivP1Pdo_6muster3tui6render22centered_rect_absolute
FNDA:3,_RNvNtNtCsiurRivP1Pdo_6muster3tui6render22render_confirm_overlay
FNDA:0,_RNvNtNtCsiurRivP1Pdo_6muster3tui6render27render_count_picker_overlay
FNDA:18,_RNvNtNtCsiurRivP1Pdo_6muster3tui6render27styled_mnemonic_description
FNDA:3,_RNvNtNtCsiurRivP1Pdo_6muster3tui6render28calculate_preview_dimensions
FNDA:23,_RNvNtNtCsiurRivP1Pdo_6muster3tui6render6render
FNDA:88,_RNvNtNtNtCsiurRivP1Pdo_6muster3tui6render5tests17create_test_agent
FNDA:23,_RNvNtNtNtCsiurRivP1Pdo_6muster3tui6render5tests18create_test_config
FNDA:22,_RNvNtNtNtCsiurRivP1Pdo_6muster3tui6render5tests27create_test_app_with_agents
FNDA:1,_RNvNtNtNtCsiurRivP1Pdo_6muster3tui6render5testss_20test_render_diff_tab
FNDA:1,_RNvNtNtNtCsiurRivP1Pdo_6muster3tui6render5testss_21test_render_help_mode
FNDA:1,_RNvNtNtNtCsiurRivP1Pdo_6muster3tui6render5testss_22test_render_with_error
FNDA:1,_RNvNtNtNtCsiurRivP1Pdo_6muster3tui6render5testss_23test_render_error_modal
FNDA:1,_RNvNtNtNtCsiurRivP1Pdo_6muster3tui6render5testss_23test_render_normal_mode
FNDA:1,_RNvNtNtNtCsiurRivP1Pdo_6muster3tui6render5testss_24test_render_empty_agents
FNDA:1,_RNvNtNtNtCsiurRivP1Pdo_6muster3tui6render5testss_25test_render_creating_mode
FNDA:1,_RNvNtNtNtCsiurRivP1Pdo_6muster3tui6render5testss_25test_render_various_sizes
FNDA:1,_RNvNtNtNtCsiurRivP1Pdo_6muster3tui6render5testss_26test_render_prompting_mode
FNDA:1,_RNvNtNtNtCsiurRivP1Pdo_6muster3tui6render5testss_26test_render_scrolling_mode
FNDA:1,_RNvNtNtNtCsiurRivP1Pdo_6muster3tui6render5testss_26test_render_with_selection
FNDA:1,_RNvNtNtNtCsiurRivP1Pdo_6muster3tui6render5testss_28test_render_diff_with_scroll
FNDA:1,_RNvNtNtNtCsiurRivP1Pdo_6muster3tui6render5testss_31test_render_preview_with_scroll
FNDA:1,_RNvNtNtNtCsiurRivP1Pdo_6muster3tui6render5testss_31test_render_with_status_message
FNDA:1,_RNvNtNtNtCsiurRivP1Pdo_6muster3tui6render5testss_32test_render_confirming_kill_mode
FNDA:1,_RNvNtNtNtCsiurRivP1Pdo_6muster3tui6render5testss_32test_render_confirming_quit_mode
FNDA:1,_RNvNtNtNtCsiurRivP1Pdo_6muster3tui6render5testss_32test_render_preview_with_content
FNDA:1,_RNvNtNtNtCsiurRivP1Pdo_6muster3tui6render5testss_33test_calculate_preview_dimensions
FNDA:1,_RNvNtNtNtCsiurRivP1Pdo_6muster3tui6render5testss_33test_render_confirming_reset_mode
FNDA:1,_RNvNtNtNtCsiurRivP1Pdo_6muster3tui6render5testss_34test_render_scroll_exceeds_content
FNDA:1,_RNvNtNtNtCsiurRivP1Pdo_6muster3tui6render5testss_36test_render_error_modal_long_message
FNDA:1,_RNvNtNtNtCsiurRivP1Pdo_6muster3tui6render5testss_48test_calculate_preview_dimensions_large_terminal
FNDA:1,_RNvNtNtNtCsiurRivP1Pdo_6muster3tui6render5testss_48test_calculate_preview_dimensions_small_terminal
FNF:70
FNH:67
DA:49,23
DA:50,23
DA:51,23
DA:52,23
DA:53,23
DA:55,23
DA:56,23
DA:58,23
DA:59,1
DA:60,1
DA:61,1
DA:62,1
DA:63,1
DA:64,1
DA:65,1
DA:66,1
DA:67,1
DA:69,0
DA:70,0
DA:71,0
DA:72,0
DA:73,0
DA:74,0
DA:76,0
DA:77,0
DA:78,0
DA:79,0
DA:80,0
DA:82,3
DA:83,3
DA:84,1
DA:85,0
DA:86,0
DA:88,0
DA:90,0
DA:91,1
DA:92,1
DA:93,1
DA:95,1
DA:97,1
DA:98,1
DA:99,1
DA:100,1
DA:101,1
DA:102,1
DA:103,1
DA:104,1
DA:107,1
DA:108,1
DA:109,1
DA:110,1
DA:111,1
DA:114,1
DA:115,1
DA:116,1
DA:117,1
DA:118,1
DA:121,1
DA:122,1
DA:124,1
DA:127,1
DA:130,1
DA:132,1
DA:136,1
DA:138,1
DA:142,3
DA:144,3
DA:145,14
DA:147,23
DA:149,23
DA:150,23
DA:151,23
DA:152,23
DA:153,23
DA:155,23
DA:156,23
DA:157,23
DA:159,23
DA:160,23
DA:162,23
DA:163,23
DA:164,23
DA:165,88
DA:166,88
DA:167,22
DA:168,22
DA:169,22
DA:170,22
DA:173,88
DA:174,22
DA:175,22
DA:176,22
DA:177,22
DA:179,66
DA:183,88
DA:186,88
DA:187,88
DA:188,0
DA:190,88
DA:194,88
DA:195,88
DA:196,0
DA:198,88
DA:201,88
DA:202,88
DA:203,88
DA:204,88
DA:205,88
DA:207,88
DA:208,88
DA:209,88
DA:210,88
DA:211,88
DA:212,88
DA:216,88
DA:217,88
DA:218,23
DA:220,23
DA:221,23
DA:222,23
DA:223,23
DA:224,23
DA:225,23
DA:226,23
DA:228,23
DA:230,23
DA:231,23
DA:233,23
DA:234,23
DA:235,23
DA:236,23
DA:237,23
DA:239,23
DA:241,23
DA:242,21
DA:243,2
DA:245,23
DA:247,23
DA:248,23
DA:249,23
DA:250,23
DA:253,23
DA:254,23
DA:255,46
DA:256,46
DA:257,23
DA:258,23
DA:259,23
DA:260,23
DA:261,23
DA:262,23
DA:265,23
DA:267,46
DA:268,23
DA:270,23
DA:271,23
DA:272,23
DA:273,23
DA:275,21
DA:276,21
DA:279,21
DA:281,0
DA:282,0
DA:284,21
DA:285,21
DA:286,21
DA:287,21
DA:288,21
DA:289,21
DA:291,21
DA:292,21
DA:293,21
DA:294,21
DA:295,21
DA:296,21
DA:298,21
DA:299,21
DA:301,21
DA:302,21
DA:304,2
DA:305,2
DA:307,2
DA:308,2
DA:309,108
DA:310,108
DA:311,101
DA:312,7
DA:313,1
DA:314,6
DA:315,1
DA:317,5
DA:320,108
DA:321,108
DA:322,2
DA:324,2
DA:325,2
DA:326,2
DA:327,2
DA:328,2
DA:330,2
DA:331,2
DA:332,2
DA:333,2
DA:334,2
DA:335,2
DA:337,2
DA:338,2
DA:340,2
DA:341,2
DA:343,23
DA:345,23
DA:347,23
DA:348,0
DA:349,0
DA:350,0
DA:351,0
DA:352,0
DA:354,1
DA:355,1
DA:356,1
DA:359,22
DA:360,22
DA:361,22
DA:362,22
DA:363,22
DA:368,23
DA:369,23
DA:370,23
DA:374,18
DA:375,18
DA:376,18
DA:378,38
DA:380,20
DA:381,2
DA:382,2
DA:383,2
DA:384,2
DA:385,18
DA:388,20
DA:389,20
DA:390,20
DA:391,20
DA:392,20
DA:393,20
DA:394,20
DA:395,20
DA:396,20
DA:397,20
DA:398,20
DA:399,20
DA:400,20
DA:401,20
DA:402,20
DA:403,20
DA:404,20
DA:405,20
DA:406,20
DA:407,20
DA:408,20
DA:409,20
DA:410,0
DA:411,0
DA:412,0
DA:413,0
DA:414,0
DA:415,0
DA:416,0
DA:420,18
DA:421,18
DA:422,18
DA:423,18
DA:424,18
DA:425,18
DA:427,18
DA:428,18
DA:430,1
DA:435,1
DA:437,1
DA:438,1
DA:440,1
DA:441,1
DA:442,1
DA:444,1
DA:447,1
DA:448,19
DA:449,18
DA:452,18
DA:453,3
DA:454,2
DA:455,2
DA:456,3
DA:457,3
DA:458,3
DA:460,3
DA:461,15
DA:464,18
DA:465,18
DA:467,18
DA:468,18
DA:469,18
DA:471,18
DA:473,18
DA:476,1
DA:477,1
DA:479,1
DA:482,1
DA:483,1
DA:484,1
DA:485,1
DA:486,1
DA:487,1
DA:489,1
DA:491,1
DA:492,1
DA:493,1
DA:495,2
DA:497,2
DA:499,2
DA:500,2
DA:501,2
DA:502,2
DA:504,2
DA:505,2
DA:506,2
DA:507,2
DA:508,2
DA:509,2
DA:511,2
DA:512,2
DA:514,2
DA:518,2
DA:519,2
DA:520,2
DA:521,2
DA:522,2
DA:523,2
DA:525,2
DA:527,2
DA:528,2
DA:529,2
DA:531,0
DA:533,0
DA:535,0
DA:536,0
DA:538,0
DA:541,0
DA:542,0
DA:543,0
DA:544,0
DA:546,0
DA:548,0
DA:549,0
DA:551,0
DA:553,0
DA:554,0
DA:555,0
DA:556,0
DA:557,0
DA:559,0
DA:561,0
DA:563,0
DA:564,0
DA:566,0
DA:568,0
DA:570,0
DA:574,0
DA:575,0
DA:576,0
DA:577,0
DA:578,0
DA:579,0
DA:581,0
DA:583,0
DA:584,0
DA:585,0
DA:587,3
DA:589,3
DA:590,3
DA:591,3
DA:593,3
DA:594,3
DA:595,3
DA:597,3
DA:598,3
DA:600,3
DA:601,3
DA:602,3
DA:604,3
DA:608,3
DA:609,3
DA:611,3
DA:613,3
DA:614,3
DA:615,3
DA:616,3
DA:617,3
DA:618,3
DA:620,3
DA:622,3
DA:623,3
DA:624,3
DA:626,3
DA:628,3
DA:629,3
DA:632,3
DA:634,3
DA:635,3
DA:636,3
DA:638,3
DA:641,3
DA:642,3
DA:644,34
DA:645,31
DA:646,3
DA:647,28
DA:648,25
DA:649,25
DA:650,25
DA:651,3
DA:652,3
DA:653,3
DA:654,3
DA:655,3
DA:656,3
DA:658,3
DA:659,3
DA:660,3
DA:661,3
DA:662,3
DA:663,3
DA:666,3
DA:667,3
DA:669,3
DA:673,3
DA:674,3
DA:676,3
DA:677,3
DA:678,3
DA:679,3
DA:680,3
DA:681,3
DA:683,3
DA:684,3
DA:686,3
DA:687,3
DA:688,3
DA:694,3
DA:696,3
DA:699,3
DA:702,3
DA:705,3
DA:706,3
DA:708,3
DA:709,3
DA:712,9
DA:713,9
DA:714,9
DA:715,9
DA:716,9
DA:717,9
DA:718,9
DA:719,9
DA:720,9
DA:721,9
DA:723,9
DA:724,9
DA:725,9
DA:726,9
DA:727,9
DA:728,9
DA:729,9
DA:730,9
DA:731,9
DA:743,23
DA:744,23
DA:745,23
DA:746,23
DA:747,23
DA:748,23
DA:749,23
DA:750,23
DA:751,23
DA:752,23
DA:754,88
DA:755,88
DA:756,88
DA:757,88
DA:758,88
DA:759,88
DA:760,88
DA:762,88
DA:763,88
DA:764,88
DA:766,22
DA:767,22
DA:768,22
DA:770,22
DA:771,22
DA:772,22
DA:773,22
DA:775,22
DA:776,22
DA:779,1
DA:780,1
DA:781,1
DA:782,1
DA:784,1
DA:785,1
DA:786,1
DA:788,1
DA:789,1
DA:790,1
DA:791,1
DA:794,1
DA:795,1
DA:796,1
DA:797,1
DA:798,1
DA:800,1
DA:801,1
DA:802,1
DA:804,1
DA:805,1
DA:806,1
DA:807,1
DA:810,1
DA:811,1
DA:812,1
DA:813,1
DA:814,1
DA:815,1
DA:816,1
DA:817,1
DA:818,1
DA:820,1
DA:821,1
DA:822,1
DA:824,1
DA:825,1
DA:826,1
DA:827,1
DA:830,1
DA:831,1
DA:832,1
DA:833,1
DA:834,1
DA:835,1
DA:836,1
DA:837,1
DA:839,1
DA:840,1
DA:841,1
DA:843,1
DA:844,1
DA:845,1
DA:846,1
DA:849,1
DA:850,1
DA:851,1
DA:852,1
DA:853,1
DA:855,1
DA:856,1
DA:857,1
DA:859,1
DA:860,1
DA:861,1
DA:862,1
DA:865,1
DA:866,1
DA:867,1
DA:868,1
DA:869,1
DA:871,1
DA:872,1
DA:873,1
DA:875,1
DA:876,1
DA:877,1
DA:878,1
DA:881,1
DA:882,1
DA:883,1
DA:884,1
DA:885,1
DA:887,1
DA:888,1
DA:889,1
DA:891,1
DA:892,1
DA:893,1
DA:894,1
DA:897,1
DA:898,1
DA:899,1
DA:900,1
DA:901,1
DA:903,1
DA:904,1
DA:905,1
DA:907,1
DA:908,1
DA:909,1
DA:910,1
DA:913,1
DA:914,1
DA:915,1
DA:916,1
DA:917,1
DA:919,1
DA:920,1
DA:921,1
DA:923,1
DA:924,1
DA:925,1
DA:926,1
DA:929,1
DA:930,1
DA:931,1
DA:932,1
DA:933,1
DA:934,1
DA:937,1
DA:938,1
DA:939,1
DA:940,1
DA:941,1
DA:942,1
DA:943,1
DA:944,1
DA:945,1
DA:947,1
DA:948,1
DA:949,1
DA:951,1
DA:952,1
DA:953,1
DA:954,1
DA:957,1
DA:958,1
DA:959,1
DA:960,1
DA:961,1
DA:963,1
DA:964,1
DA:965,1
DA:967,1
DA:968,1
DA:969,1
DA:970,1
DA:973,1
DA:974,1
DA:975,1
DA:976,1
DA:977,1
DA:978,100
DA:979,1
DA:980,1
DA:981,1
DA:983,1
DA:984,1
DA:985,1
DA:987,1
DA:988,1
DA:989,1
DA:990,1
DA:993,1
DA:994,1
DA:995,1
DA:996,1
DA:997,1
DA:998,1
DA:999,100
DA:1000,1
DA:1001,1
DA:1002,1
DA:1004,1
DA:1005,1
DA:1006,1
DA:1008,1
DA:1009,1
DA:1010,1
DA:1011,1
DA:1014,1
DA:1015,1
DA:1016,1
DA:1017,1
DA:1019,1
DA:1020,1
DA:1021,1
DA:1023,1
DA:1024,1
DA:1025,1
DA:1026,1
DA:1029,1
DA:1030,1
DA:1031,1
DA:1032,1
DA:1033,1
DA:1034,1
DA:1036,1
DA:1037,1
DA:1038,1
DA:1040,1
DA:1041,1
DA:1042,1
DA:1043,1
DA:1046,1
DA:1047,4
DA:1048,4
DA:1049,4
DA:1050,4
DA:1052,4
DA:1053,4
DA:1054,4
DA:1056,4
DA:1057,4
DA:1059,1
DA:1060,1
DA:1063,1
DA:1064,1
DA:1065,1
DA:1066,1
DA:1067,1
DA:1069,1
DA:1070,1
DA:1071,1
DA:1073,1
DA:1074,1
DA:1075,1
DA:1076,1
DA:1079,1
DA:1080,1
DA:1081,1
DA:1082,1
DA:1083,1
DA:1085,1
DA:1087,1
DA:1088,1
DA:1089,1
DA:1091,1
DA:1092,1
DA:1093,1
DA:1094,1
DA:1097,1
DA:1098,1
DA:1099,1
DA:1100,1
DA:1101,1
DA:1104,1
DA:1106,1
DA:1107,1
DA:1108,1
DA:1110,1
DA:1111,1
DA:1112,1
DA:1113,1
DA:1116,1
DA:1117,1
DA:1118,1
DA:1119,1
DA:1120,1
DA:1122,1
DA:1123,1
DA:1124,1
DA:1126,1
DA:1127,1
DA:1128,1
DA:1129,1
DA:1132,1
DA:1136,1
DA:1137,1
DA:1140,1
DA:1142,1
DA:1143,1
DA:1146,1
DA:1150,1
DA:1151,1
DA:1154,1
DA:1156,1
DA:1157,1
DA:1160,1
DA:1164,1
DA:1165,1
DA:1168,1
DA:1170,1
DA:1171,1
BRF:0
BRH:0
LF:833
LH:746
end_of_record
SF:/home/quinten/Documents/Software_Development/muster/src/ui/components/agent_list.rs
FN:43,_RNCNvMNtNtNtCs3bOdyUEi4qt_6muster2ui10components10agent_listNtB4_6Widget7to_list0Ba_
FN:56,_RNvMNtNtNtCs3bOdyUEi4qt_6muster2ui10components10agent_listNtB2_6Widget11render_item
FN:21,_RNvMNtNtNtCs3bOdyUEi4qt_6muster2ui10components10agent_listNtB2_6Widget3new
FN:38,_RNvMNtNtNtCs3bOdyUEi4qt_6muster2ui10components10agent_listNtB2_6Widget7to_list
FN:86,_RNvNtNtNtCs3bOdyUEi4qt_6muster2ui10components10agent_list15status_to_color
FN:31,_RINvMNtNtNtCs3bOdyUEi4qt_6muster2ui10components10agent_listNtB3_6Widget5titlepEB9_
FN:31,_RINvMNtNtNtCs3bOdyUEi4qt_6muster2ui10components10agent_listNtB3_6Widget5titleReECsiCVeir77c0w_18integration_render
FN:31,_RINvMNtNtNtCs5Hx9zLFZsDi_6muster2ui10components10agent_listNtB3_6Widget5titleReEB9_
FN:43,_RNCNvMNtNtNtCs5Hx9zLFZsDi_6muster2ui10components10agent_listNtB4_6Widget7to_list0Ba_
FN:56,_RNvMNtNtNtCs5Hx9zLFZsDi_6muster2ui10components10agent_listNtB2_6Widget11render_item
FN:21,_RNvMNtNtNtCs5Hx9zLFZsDi_6muster2ui10components10agent_listNtB2_6Widget3new
FN:38,_RNvMNtNtNtCs5Hx9zLFZsDi_6muster2ui10components10agent_listNtB2_6Widget7to_list
FN:86,_RNvNtNtNtCs5Hx9zLFZsDi_6muster2ui10components10agent_list15status_to_color
FN:100,_RNvNtNtNtNtCs5Hx9zLFZsDi_6muster2ui10components10agent_list5tests17create_test_agent
FN:139,_RNvNtNtNtNtCs5Hx9zLFZsDi_6muster2ui10components10agent_list5testss_12test_to_list
FN:131,_RNvNtNtNtNtCs5Hx9zLFZsDi_6muster2ui10components10agent_list5testss_20test_status_to_color
FN:113,_RNvNtNtNtNtCs5Hx9zLFZsDi_6muster2ui10components10agent_list5testss_26test_agent_list_widget_new
FN:124,_RNvNtNtNtNtCs5Hx9zLFZsDi_6muster2ui10components10agent_list5testss_28test_agent_list_widget_title
FNDA:39,_RNCNvMNtNtNtCs3bOdyUEi4qt_6muster2ui10components10agent_listNtB4_6Widget7to_list0Ba_
FNDA:39,_RNvMNtNtNtCs3bOdyUEi4qt_6muster2ui10components10agent_listNtB2_6Widget11render_item
FNDA:14,_RNvMNtNtNtCs3bOdyUEi4qt_6muster2ui10components10agent_listNtB2_6Widget3new
FNDA:14,_RNvMNtNtNtCs3bOdyUEi4qt_6muster2ui10components10agent_listNtB2_6Widget7to_list
FNDA:39,_RNvNtNtNtCs3bOdyUEi4qt_6muster2ui10components10agent_list15status_to_color
FNDA:0,_RINvMNtNtNtCs3bOdyUEi4qt_6muster2ui10components10agent_listNtB3_6Widget5titlepEB9_
FNDA:1,_RINvMNtNtNtCs3bOdyUEi4qt_6muster2ui10components10agent_listNtB3_6Widget5titleReECsiCVeir77c0w_18integration_render
FNDA:1,_RINvMNtNtNtCs5Hx9zLFZsDi_6muster2ui10components10agent_listNtB3_6Widget5titleReEB9_
FNDA:1,_RNCNvMNtNtNtCs5Hx9zLFZsDi_6muster2ui10components10agent_listNtB4_6Widget7to_list0Ba_
FNDA:1,_RNvMNtNtNtCs5Hx9zLFZsDi_6muster2ui10components10agent_listNtB2_6Widget11render_item
FNDA:3,_RNvMNtNtNtCs5Hx9zLFZsDi_6muster2ui10components10agent_listNtB2_6Widget3new
FNDA:1,_RNvMNtNtNtCs5Hx9zLFZsDi_6muster2ui10components10agent_listNtB2_6Widget7to_list
FNDA:5,_RNvNtNtNtCs5Hx9zLFZsDi_6muster2ui10components10agent_list15status_to_color
FNDA:4,_RNvNtNtNtNtCs5Hx9zLFZsDi_6muster2ui10components10agent_list5tests17create_test_agent
FNDA:1,_RNvNtNtNtNtCs5Hx9zLFZsDi_6muster2ui10components10agent_list5testss_12test_to_list
FNDA:1,_RNvNtNtNtNtCs5Hx9zLFZsDi_6muster2ui10components10agent_list5testss_20test_status_to_color
FNDA:1,_RNvNtNtNtNtCs5Hx9zLFZsDi_6muster2ui10components10agent_list5testss_26test_agent_list_widget_new
FNDA:1,_RNvNtNtNtNtCs5Hx9zLFZsDi_6muster2ui10components10agent_list5testss_28test_agent_list_widget_title
FNF:11
FNH:11
DA:21,17
DA:22,17
DA:23,17
DA:24,17
DA:25,17
DA:26,17
DA:27,17
DA:31,2
DA:32,2
DA:33,2
DA:34,2
DA:38,15
DA:39,15
DA:40,15
DA:41,15
DA:42,15
DA:43,40
DA:44,15
DA:46,15
DA:47,15
DA:48,15
DA:49,15
DA:50,15
DA:51,15
DA:53,15
DA:54,15
DA:56,40
DA:57,40
DA:59,40
DA:60,14
DA:61,14
DA:62,14
DA:63,14
DA:65,26
DA:68,40
DA:69,40
DA:70,40
DA:71,40
DA:73,40
DA:74,40
DA:75,40
DA:76,40
DA:80,40
DA:81,40
DA:86,44
DA:87,44
DA:88,1
DA:89,15
DA:90,14
DA:91,14
DA:93,44
DA:100,4
DA:101,4
DA:102,4
DA:103,4
DA:104,4
DA:105,4
DA:106,4
DA:108,4
DA:109,4
DA:110,4
DA:113,1
DA:114,1
DA:115,1
DA:116,1
DA:119,1
DA:120,1
DA:121,1
DA:124,1
DA:125,1
DA:126,1
DA:127,1
DA:128,1
DA:131,1
DA:132,1
DA:133,1
DA:134,1
DA:135,1
DA:136,1
DA:139,1
DA:140,1
DA:141,1
DA:142,1
DA:143,1
BRF:0
BRH:0
LF:85
LH:85
end_of_record
SF:/home/quinten/Documents/Software_Development/muster/src/ui/components/diff_view.rs
FN:48,_RNCNvMNtNtNtCs3bOdyUEi4qt_6muster2ui10components9diff_viewNtB4_6Widget12to_paragraph0Ba_
FN:68,_RNvMNtNtNtCs3bOdyUEi4qt_6muster2ui10components9diff_viewNtB2_6Widget10line_count
FN:44,_RNvMNtNtNtCs3bOdyUEi4qt_6muster2ui10components9diff_viewNtB2_6Widget12to_paragraph
FN:30,_RNvMNtNtNtCs3bOdyUEi4qt_6muster2ui10components9diff_viewNtB2_6Widget6scroll
FN:75,_RNvNtNtNtCs3bOdyUEi4qt_6muster2ui10components9diff_view10line_color
FN:20,_RINvMNtNtNtCs3bOdyUEi4qt_6muster2ui10components9diff_viewNtB3_6Widget3newpEB9_
FN:37,_RINvMNtNtNtCs3bOdyUEi4qt_6muster2ui10components9diff_viewNtB3_6Widget5titlepEB9_
FN:20,_RINvMNtNtNtCs3bOdyUEi4qt_6muster2ui10components9diff_viewNtB3_6Widget3newRNtNtCs456UZznmu7y_5alloc6string6StringECsiCVeir77c0w_18integration_render
FN:20,_RINvMNtNtNtCs3bOdyUEi4qt_6muster2ui10components9diff_viewNtB3_6Widget3newReECsiCVeir77c0w_18integration_render
FN:37,_RINvMNtNtNtCs3bOdyUEi4qt_6muster2ui10components9diff_viewNtB3_6Widget5titleReECsiCVeir77c0w_18integration_render
FN:20,_RINvMNtNtNtCs5Hx9zLFZsDi_6muster2ui10components9diff_viewNtB3_6Widget3newReEB9_
FN:37,_RINvMNtNtNtCs5Hx9zLFZsDi_6muster2ui10components9diff_viewNtB3_6Widget5titleReEB9_
FN:48,_RNCNvMNtNtNtCs5Hx9zLFZsDi_6muster2ui10components9diff_viewNtB4_6Widget12to_paragraph0Ba_
FN:68,_RNvMNtNtNtCs5Hx9zLFZsDi_6muster2ui10components9diff_viewNtB2_6Widget10line_count
FN:44,_RNvMNtNtNtCs5Hx9zLFZsDi_6muster2ui10components9diff_viewNtB2_6Widget12to_paragraph
FN:30,_RNvMNtNtNtCs5Hx9zLFZsDi_6muster2ui10components9diff_viewNtB2_6Widget6scroll
FN:75,_RNvNtNtNtCs5Hx9zLFZsDi_6muster2ui10components9diff_view10line_color
FN:146,_RNvNtNtNtNtCs5Hx9zLFZsDi_6muster2ui10components9diff_view5testss_17test_to_paragraph
FN:114,_RNvNtNtNtNtCs5Hx9zLFZsDi_6muster2ui10components9diff_view5testss_21test_line_color_added
FN:140,_RNvNtNtNtNtCs5Hx9zLFZsDi_6muster2ui10components9diff_view5testss_23test_line_color_context
FN:119,_RNvNtNtNtNtCs5Hx9zLFZsDi_6muster2ui10components9diff_view5testss_23test_line_color_removed
FN:96,_RNvNtNtNtNtCs5Hx9zLFZsDi_6muster2ui10components9diff_view5testss_25test_diff_view_widget_new
FN:108,_RNvNtNtNtNtCs5Hx9zLFZsDi_6muster2ui10components9diff_view5testss_27test_diff_view_widget_title
FN:129,_RNvNtNtNtNtCs5Hx9zLFZsDi_6muster2ui10components9diff_view5testss_27test_line_color_diff_header
FN:124,_RNvNtNtNtNtCs5Hx9zLFZsDi_6muster2ui10components9diff_view5testss_27test_line_color_hunk_header
FN:102,_RNvNtNtNtNtCs5Hx9zLFZsDi_6muster2ui10components9diff_view5testss_28test_diff_view_widget_scroll
FN:134,_RNvNtNtNtNtCs5Hx9zLFZsDi_6muster2ui10components9diff_view5testss_28test_line_color_file_markers
FNDA:21,_RNCNvMNtNtNtCs3bOdyUEi4qt_6muster2ui10components9diff_viewNtB4_6Widget12to_paragraph0Ba_
FNDA:1,_RNvMNtNtNtCs3bOdyUEi4qt_6muster2ui10components9diff_viewNtB2_6Widget10line_count
FNDA:5,_RNvMNtNtNtCs3bOdyUEi4qt_6muster2ui10components9diff_viewNtB2_6Widget12to_paragraph
FNDA:2,_RNvMNtNtNtCs3bOdyUEi4qt_6muster2ui10components9diff_viewNtB2_6Widget6scroll
FNDA:21,_RNvNtNtNtCs3bOdyUEi4qt_6muster2ui10components9diff_view10line_color
FNDA:0,_RINvMNtNtNtCs3bOdyUEi4qt_6muster2ui10components9diff_viewNtB3_6Widget3newpEB9_
FNDA:0,_RINvMNtNtNtCs3bOdyUEi4qt_6muster2ui10components9diff_viewNtB3_6Widget5titlepEB9_
FNDA:1,_RINvMNtNtNtCs3bOdyUEi4qt_6muster2ui10components9diff_viewNtB3_6Widget3newRNtNtCs456UZznmu7y_5alloc6string6StringECsiCVeir77c0w_18integration_render
FNDA:5,_RINvMNtNtNtCs3bOdyUEi4qt_6muster2ui10components9diff_viewNtB3_6Widget3newReECsiCVeir77c0w_18integration_render
FNDA:1,_RINvMNtNtNtCs3bOdyUEi4qt_6muster2ui10components9diff_viewNtB3_6Widget5titleReECsiCVeir77c0w_18integration_render
FNDA:4,_RINvMNtNtNtCs5Hx9zLFZsDi_6muster2ui10components9diff_viewNtB3_6Widget3newReEB9_
FNDA:1,_RINvMNtNtNtCs5Hx9zLFZsDi_6muster2ui10components9diff_viewNtB3_6Widget5titleReEB9_
FNDA:3,_RNCNvMNtNtNtCs5Hx9zLFZsDi_6muster2ui10components9diff_viewNtB4_6Widget12to_paragraph0Ba_
FNDA:1,_RNvMNtNtNtCs5Hx9zLFZsDi_6muster2ui10components9diff_viewNtB2_6Widget10line_count
FNDA:1,_RNvMNtNtNtCs5Hx9zLFZsDi_6muster2ui10components9diff_viewNtB2_6Widget12to_paragraph
FNDA:1,_RNvMNtNtNtCs5Hx9zLFZsDi_6muster2ui10components9diff_viewNtB2_6Widget6scroll
FNDA:11,_RNvNtNtNtCs5Hx9zLFZsDi_6muster2ui10components9diff_view10line_color
FNDA:1,_RNvNtNtNtNtCs5Hx9zLFZsDi_6muster2ui10components9diff_view5testss_17test_to_paragraph
FNDA:1,_RNvNtNtNtNtCs5Hx9zLFZsDi_6muster2ui10components9diff_view5testss_21test_line_color_added
FNDA:1,_RNvNtNtNtNtCs5Hx9zLFZsDi_6muster2ui10components9diff_view5testss_23test_line_color_context
FNDA:1,_RNvNtNtNtNtCs5Hx9zLFZsDi_6muster2ui10components9diff_view5testss_23test_line_color_removed
FNDA:1,_RNvNtNtNtNtCs5Hx9zLFZsDi_6muster2ui10components9diff_view5testss_25test_diff_view_widget_new
FNDA:1,_RNvNtNtNtNtCs5Hx9zLFZsDi_6muster2ui10components9diff_view5testss_27test_diff_view_widget_title
FNDA:1,_RNvNtNtNtNtCs5Hx9zLFZsDi_6muster2ui10components9diff_view5testss_27test_line_color_diff_header
FNDA:1,_RNvNtNtNtNtCs5Hx9zLFZsDi_6muster2ui10components9diff_view5testss_27test_line_color_hunk_header
FNDA:1,_RNvNtNtNtNtCs5Hx9zLFZsDi_6muster2ui10components9diff_view5testss_28test_diff_view_widget_scroll
FNDA:1,_RNvNtNtNtNtCs5Hx9zLFZsDi_6muster2ui10components9diff_view5testss_28test_line_color_file_markers
FNF:17
FNH:17
DA:20,10
DA:21,10
DA:22,10
DA:23,10
DA:24,10
DA:25,10
DA:26,10
DA:30,3
DA:31,3
DA:32,3
DA:33,3
DA:37,2
DA:38,2
DA:39,2
DA:40,2
DA:44,6
DA:45,6
DA:46,6
DA:47,6
DA:48,24
DA:49,24
DA:50,24
DA:51,24
DA:52,6
DA:54,6
DA:55,6
DA:56,6
DA:57,6
DA:58,6
DA:59,6
DA:60,6
DA:62,6
DA:63,6
DA:64,6
DA:68,2
DA:69,2
DA:70,2
DA:75,32
DA:76,32
DA:77,5
DA:78,27
DA:79,3
DA:80,24
DA:81,2
DA:82,22
DA:83,3
DA:84,19
DA:85,4
DA:87,15
DA:89,32
DA:96,1
DA:97,1
DA:98,1
DA:99,1
DA:102,1
DA:103,1
DA:104,1
DA:105,1
DA:108,1
DA:109,1
DA:110,1
DA:111,1
DA:114,1
DA:115,1
DA:116,1
DA:119,1
DA:120,1
DA:121,1
DA:124,1
DA:125,1
DA:126,1
DA:129,1
DA:130,1
DA:131,1
DA:134,1
DA:135,1
DA:136,1
DA:137,1
DA:140,1
DA:141,1
DA:142,1
DA:143,1
DA:146,1
DA:147,1
DA:148,1
DA:149,1
BRF:0
BRH:0
LF:87
LH:87
end_of_record
SF:/home/quinten/Documents/Software_Development/muster/src/ui/components/preview.rs
FN:61,_RNvMNtNtNtCs3bOdyUEi4qt_6muster2ui10components7previewNtB2_6Widget10line_count
FN:44,_RNvMNtNtNtCs3bOdyUEi4qt_6muster2ui10components7previewNtB2_6Widget12to_paragraph
FN:30,_RNvMNtNtNtCs3bOdyUEi4qt_6muster2ui10components7previewNtB2_6Widget6scroll
FN:20,_RINvMNtNtNtCs3bOdyUEi4qt_6muster2ui10components7previewNtB3_6Widget3newpEB9_
FN:37,_RINvMNtNtNtCs3bOdyUEi4qt_6muster2ui10components7previewNtB3_6Widget5titlepEB9_
FN:20,_RINvMNtNtNtCs3bOdyUEi4qt_6muster2ui10components7previewNtB3_6Widget3newRNtNtCs456UZznmu7y_5alloc6string6StringECsiCVeir77c0w_18integration_render
FN:20,_RINvMNtNtNtCs3bOdyUEi4qt_6muster2ui10components7previewNtB3_6Widget3newReECsiCVeir77c0w_18integration_render
FN:37,_RINvMNtNtNtCs3bOdyUEi4qt_6muster2ui10components7previewNtB3_6Widget5titleReECsiCVeir77c0w_18integration_render
FN:20,_RINvMNtNtNtCs5Hx9zLFZsDi_6muster2ui10components7previewNtB3_6Widget3newReEB9_
FN:37,_RINvMNtNtNtCs5Hx9zLFZsDi_6muster2ui10components7previewNtB3_6Widget5titleReEB9_
FN:61,_RNvMNtNtNtCs5Hx9zLFZsDi_6muster2ui10components7previewNtB2_6Widget10line_count
FN:44,_RNvMNtNtNtCs5Hx9zLFZsDi_6muster2ui10components7previewNtB2_6Widget12to_paragraph
FN:30,_RNvMNtNtNtCs5Hx9zLFZsDi_6muster2ui10components7previewNtB2_6Widget6scroll
FN:89,_RNvNtNtNtNtCs5Hx9zLFZsDi_6muster2ui10components7preview5testss_17test_to_paragraph
FN:95,_RNvNtNtNtNtCs5Hx9zLFZsDi_6muster2ui10components7preview5testss_21test_line_count_empty
FN:71,_RNvNtNtNtNtCs5Hx9zLFZsDi_6muster2ui10components7preview5testss_23test_preview_widget_new
FN:101,_RNvNtNtNtNtCs5Hx9zLFZsDi_6muster2ui10components7preview5testss_25test_line_count_multiline
FN:83,_RNvNtNtNtNtCs5Hx9zLFZsDi_6muster2ui10components7preview5testss_25test_preview_widget_title
FN:77,_RNvNtNtNtNtCs5Hx9zLFZsDi_6muster2ui10components7preview5testss_26test_preview_widget_scroll
FNDA:1,_RNvMNtNtNtCs3bOdyUEi4qt_6muster2ui10components7previewNtB2_6Widget10line_count
FNDA:10,_RNvMNtNtNtCs3bOdyUEi4qt_6muster2ui10components7previewNtB2_6Widget12to_paragraph
FNDA:7,_RNvMNtNtNtCs3bOdyUEi4qt_6muster2ui10components7previewNtB2_6Widget6scroll
FNDA:0,_RINvMNtNtNtCs3bOdyUEi4qt_6muster2ui10components7previewNtB3_6Widget3newpEB9_
FNDA:0,_RINvMNtNtNtCs3bOdyUEi4qt_6muster2ui10components7previewNtB3_6Widget5titlepEB9_
FNDA:6,_RINvMNtNtNtCs3bOdyUEi4qt_6muster2ui10components7previewNtB3_6Widget3newRNtNtCs456UZznmu7y_5alloc6string6StringECsiCVeir77c0w_18integration_render
FNDA:5,_RINvMNtNtNtCs3bOdyUEi4qt_6muster2ui10components7previewNtB3_6Widget3newReECsiCVeir77c0w_18integration_render
FNDA:1,_RINvMNtNtNtCs3bOdyUEi4qt_6muster2ui10components7previewNtB3_6Widget5titleReECsiCVeir77c0w_18integration_render
FNDA:6,_RINvMNtNtNtCs5Hx9zLFZsDi_6muster2ui10components7previewNtB3_6Widget3newReEB9_
FNDA:1,_RINvMNtNtNtCs5Hx9zLFZsDi_6muster2ui10components7previewNtB3_6Widget5titleReEB9_
FNDA:3,_RNvMNtNtNtCs5Hx9zLFZsDi_6muster2ui10components7previewNtB2_6Widget10line_count
FNDA:1,_RNvMNtNtNtCs5Hx9zLFZsDi_6muster2ui10components7previewNtB2_6Widget12to_paragraph
FNDA:1,_RNvMNtNtNtCs5Hx9zLFZsDi_6muster2ui10components7previewNtB2_6Widget6scroll
FNDA:1,_RNvNtNtNtNtCs5Hx9zLFZsDi_6muster2ui10components7preview5testss_17test_to_paragraph
FNDA:1,_RNvNtNtNtNtCs5Hx9zLFZsDi_6muster2ui10components7preview5testss_21test_line_count_empty
FNDA:1,_RNvNtNtNtNtCs5Hx9zLFZsDi_6muster2ui10components7preview5testss_23test_preview_widget_new
FNDA:1,_RNvNtNtNtNtCs5Hx9zLFZsDi_6muster2ui10components7preview5testss_25test_line_count_multiline
FNDA:1,_RNvNtNtNtNtCs5Hx9zLFZsDi_6muster2ui10components7preview5testss_25test_preview_widget_title
FNDA:1,_RNvNtNtNtNtCs5Hx9zLFZsDi_6muster2ui10components7preview5testss_26test_preview_widget_scroll
FNF:11
FNH:11
DA:20,17
DA:21,17
DA:22,17
DA:23,17
DA:24,17
DA:25,17
DA:26,17
DA:30,8
DA:31,8
DA:32,8
DA:33,8
DA:37,2
DA:38,2
DA:39,2
DA:40,2
DA:44,11
DA:45,11
DA:47,11
DA:48,11
DA:49,11
DA:50,11
DA:51,11
DA:52,11
DA:53,11
DA:55,11
DA:56,11
DA:57,11
DA:61,4
DA:62,4
DA:63,4
DA:71,1
DA:72,1
DA:73,1
DA:74,1
DA:77,1
DA:78,1
DA:79,1
DA:80,1
DA:83,1
DA:84,1
DA:85,1
DA:86,1
DA:89,1
DA:90,1
DA:91,1
DA:92,1
DA:95,1
DA:96,1
DA:97,1
DA:98,1
DA:101,1
DA:102,1
DA:103,1
DA:104,1
BRF:0
BRH:0
LF:54
LH:54
end_of_record
SF:/home/quinten/Documents/Software_Development/muster/src/ui/components/status_bar.rs
FN:53,_RNvMNtNtNtCs3bOdyUEi4qt_6muster2ui10components10status_barNtB2_6Widget12to_paragraph
FN:29,_RNvMNtNtNtCs3bOdyUEi4qt_6muster2ui10components10status_barNtB2_6Widget6normal
FN:37,_RINvMNtNtNtCs3bOdyUEi4qt_6muster2ui10components10status_barNtB3_6Widget5errorpEB9_
FN:45,_RINvMNtNtNtCs3bOdyUEi4qt_6muster2ui10components10status_barNtB3_6Widget6statuspEB9_
FN:37,_RINvMNtNtNtCs3bOdyUEi4qt_6muster2ui10components10status_barNtB3_6Widget5errorRNtNtCs456UZznmu7y_5alloc6string6StringECsiCVeir77c0w_18integration_render
FN:37,_RINvMNtNtNtCs3bOdyUEi4qt_6muster2ui10components10status_barNtB3_6Widget5errorReECsiCVeir77c0w_18integration_render
FN:45,_RINvMNtNtNtCs3bOdyUEi4qt_6muster2ui10components10status_barNtB3_6Widget6statusReECsiCVeir77c0w_18integration_render
FN:37,_RINvMNtNtNtCs5Hx9zLFZsDi_6muster2ui10components10status_barNtB3_6Widget5errorReEB9_
FN:45,_RINvMNtNtNtCs5Hx9zLFZsDi_6muster2ui10components10status_barNtB3_6Widget6statusReEB9_
FN:53,_RNvMNtNtNtCs5Hx9zLFZsDi_6muster2ui10components10status_barNtB2_6Widget12to_paragraph
FN:29,_RNvMNtNtNtCs5Hx9zLFZsDi_6muster2ui10components10status_barNtB2_6Widget6normal
FN:107,_RNvNtNtNtNtCs5Hx9zLFZsDi_6muster2ui10components10status_bar5testss_17test_to_paragraph
FN:87,_RNvNtNtNtNtCs5Hx9zLFZsDi_6muster2ui10components10status_bar5testss_21test_status_bar_error
FN:77,_RNvNtNtNtNtCs5Hx9zLFZsDi_6muster2ui10components10status_bar5testss_22test_status_bar_normal
FN:97,_RNvNtNtNtNtCs5Hx9zLFZsDi_6muster2ui10components10status_bar5testss_22test_status_bar_status
FN:113,_RNvNtNtNtNtCs5Hx9zLFZsDi_6muster2ui10components10status_bar5testss_23test_to_paragraph_error
FN:119,_RNvNtNtNtNtCs5Hx9zLFZsDi_6muster2ui10components10status_bar5testss_24test_to_paragraph_status
FNDA:13,_RNvMNtNtNtCs3bOdyUEi4qt_6muster2ui10components10status_barNtB2_6Widget12to_paragraph
FNDA:7,_RNvMNtNtNtCs3bOdyUEi4qt_6muster2ui10components10status_barNtB2_6Widget6normal
FNDA:0,_RINvMNtNtNtCs3bOdyUEi4qt_6muster2ui10components10status_barNtB3_6Widget5errorpEB9_
FNDA:0,_RINvMNtNtNtCs3bOdyUEi4qt_6muster2ui10components10status_barNtB3_6Widget6statuspEB9_
FNDA:1,_RINvMNtNtNtCs3bOdyUEi4qt_6muster2ui10components10status_barNtB3_6Widget5errorRNtNtCs456UZznmu7y_5alloc6string6StringECsiCVeir77c0w_18integration_render
FNDA:1,_RINvMNtNtNtCs3bOdyUEi4qt_6muster2ui10components10status_barNtB3_6Widget5errorReECsiCVeir77c0w_18integration_render
FNDA:4,_RINvMNtNtNtCs3bOdyUEi4qt_6muster2ui10components10status_barNtB3_6Widget6statusReECsiCVeir77c0w_18integration_render
FNDA:2,_RINvMNtNtNtCs5Hx9zLFZsDi_6muster2ui10components10status_barNtB3_6Widget5errorReEB9_
FNDA:2,_RINvMNtNtNtCs5Hx9zLFZsDi_6muster2ui10components10status_barNtB3_6Widget6statusReEB9_
FNDA:3,_RNvMNtNtNtCs5Hx9zLFZsDi_6muster2ui10components10status_barNtB2_6Widget12to_paragraph
FNDA:2,_RNvMNtNtNtCs5Hx9zLFZsDi_6muster2ui10components10status_barNtB2_6Widget6normal
FNDA:1,_RNvNtNtNtNtCs5Hx9zLFZsDi_6muster2ui10components10status_bar5testss_17test_to_paragraph
FNDA:1,_RNvNtNtNtNtCs5Hx9zLFZsDi_6muster2ui10components10status_bar5testss_21test_status_bar_error
FNDA:1,_RNvNtNtNtNtCs5Hx9zLFZsDi_6muster2ui10components10status_bar5testss_22test_status_bar_normal
FNDA:1,_RNvNtNtNtNtCs5Hx9zLFZsDi_6muster2ui10components10status_bar5testss_22test_status_bar_status
FNDA:1,_RNvNtNtNtNtCs5Hx9zLFZsDi_6muster2ui10components10status_bar5testss_23test_to_paragraph_error
FNDA:1,_RNvNtNtNtNtCs5Hx9zLFZsDi_6muster2ui10components10status_bar5testss_24test_to_paragraph_status
FNF:10
FNH:10
DA:29,9
DA:30,9
DA:31,9
DA:32,9
DA:33,9
DA:37,4
DA:38,4
DA:39,4
DA:40,4
DA:41,4
DA:45,6
DA:46,6
DA:47,6
DA:48,6
DA:49,6
DA:53,16
DA:54,16
DA:55,3
DA:56,3
DA:57,3
DA:59,5
DA:60,5
DA:62,8
DA:63,8
DA:64,8
DA:68,16
DA:69,16
DA:77,1
DA:78,1
DA:79,1
DA:80,1
DA:81,0
DA:83,1
DA:84,1
DA:87,1
DA:88,1
DA:89,1
DA:90,1
DA:91,0
DA:93,1
DA:94,1
DA:97,1
DA:98,1
DA:99,1
DA:100,1
DA:101,0
DA:103,1
DA:104,1
DA:107,1
DA:108,1
DA:109,1
DA:110,1
DA:113,1
DA:114,1
DA:115,1
DA:116,1
DA:119,1
DA:120,1
DA:121,1
DA:122,1
BRF:0
BRH:0
LF:60
LH:57
end_of_record